Archive member included because of file (symbol)

/usr/local/libmaple/arm/bin/../lib/gcc/arm-none-eabi/4.4.1/thumb2/libgcc.a(_arm_addsubdf3.o)
                              build//usr/local/libmaple/wirish/Print.o (__aeabi_dsub)
/usr/local/libmaple/arm/bin/../lib/gcc/arm-none-eabi/4.4.1/thumb2/libgcc.a(_arm_muldivdf3.o)
                              build//usr/local/libmaple/wirish/Print.o (__aeabi_dmul)
/usr/local/libmaple/arm/bin/../lib/gcc/arm-none-eabi/4.4.1/thumb2/libgcc.a(_arm_cmpdf2.o)
                              build//usr/local/libmaple/wirish/Print.o (__aeabi_dcmplt)
/usr/local/libmaple/arm/bin/../lib/gcc/arm-none-eabi/4.4.1/thumb2/libgcc.a(_arm_fixdfsi.o)
                              build//usr/local/libmaple/wirish/Print.o (__aeabi_d2iz)
/usr/local/libmaple/arm/bin/../lib/gcc/arm-none-eabi/4.4.1/thumb2/libgcc.a(_arm_addsubsf3.o)
                              build/main.o (__aeabi_fsub)
/usr/local/libmaple/arm/bin/../lib/gcc/arm-none-eabi/4.4.1/thumb2/libgcc.a(_arm_muldivsf3.o)
                              build/main.o (__aeabi_fmul)
/usr/local/libmaple/arm/bin/../lib/gcc/arm-none-eabi/4.4.1/thumb2/libgcc.a(_aeabi_uldivmod.o)
                              build//usr/local/libmaple/wirish/Print.o (__aeabi_uldivmod)
/usr/local/libmaple/arm/bin/../lib/gcc/arm-none-eabi/4.4.1/thumb2/libgcc.a(_fixdfdi.o)
                              build//usr/local/libmaple/wirish/Print.o (__aeabi_d2lz)
/usr/local/libmaple/arm/bin/../lib/gcc/arm-none-eabi/4.4.1/thumb2/libgcc.a(_fixunsdfdi.o)
                              /usr/local/libmaple/arm/bin/../lib/gcc/arm-none-eabi/4.4.1/thumb2/libgcc.a(_fixdfdi.o) (__aeabi_d2ulz)
/usr/local/libmaple/arm/bin/../lib/gcc/arm-none-eabi/4.4.1/thumb2/libgcc.a(bpabi.o)
                              /usr/local/libmaple/arm/bin/../lib/gcc/arm-none-eabi/4.4.1/thumb2/libgcc.a(_aeabi_uldivmod.o) (__gnu_uldivmod_helper)
/usr/local/libmaple/arm/bin/../lib/gcc/arm-none-eabi/4.4.1/thumb2/libgcc.a(_dvmd_tls.o)
                              /usr/local/libmaple/arm/bin/../lib/gcc/arm-none-eabi/4.4.1/thumb2/libgcc.a(_aeabi_uldivmod.o) (__aeabi_ldiv0)
/usr/local/libmaple/arm/bin/../lib/gcc/arm-none-eabi/4.4.1/thumb2/libgcc.a(_arm_fixunsdfsi.o)
                              /usr/local/libmaple/arm/bin/../lib/gcc/arm-none-eabi/4.4.1/thumb2/libgcc.a(_fixunsdfdi.o) (__aeabi_d2uiz)
/usr/local/libmaple/arm/bin/../lib/gcc/arm-none-eabi/4.4.1/thumb2/libgcc.a(_divdi3.o)
                              /usr/local/libmaple/arm/bin/../lib/gcc/arm-none-eabi/4.4.1/thumb2/libgcc.a(bpabi.o) (__divdi3)
/usr/local/libmaple/arm/bin/../lib/gcc/arm-none-eabi/4.4.1/thumb2/libgcc.a(_udivdi3.o)
                              /usr/local/libmaple/arm/bin/../lib/gcc/arm-none-eabi/4.4.1/thumb2/libgcc.a(bpabi.o) (__udivdi3)
/usr/local/libmaple/arm/bin/../lib/gcc/arm-none-eabi/4.4.1/thumb2/libgcc.a(_udivsi3.o)
                              /usr/local/libmaple/arm/bin/../lib/gcc/arm-none-eabi/4.4.1/thumb2/libgcc.a(_divdi3.o) (__aeabi_uidiv)
/usr/local/libmaple/arm/bin/../lib/gcc/arm-none-eabi/4.4.1/../../../../arm-none-eabi/lib/thumb2/libc.a(lib_a-memcmp.o)
                              build//usr/local/libmaple/libraries/FreeRTOS/utility/tasks.o (memcmp)
/usr/local/libmaple/arm/bin/../lib/gcc/arm-none-eabi/4.4.1/../../../../arm-none-eabi/lib/thumb2/libc.a(lib_a-memcpy.o)
                              build//usr/local/libmaple/libraries/FreeRTOS/utility/queue.o (memcpy)
/usr/local/libmaple/arm/bin/../lib/gcc/arm-none-eabi/4.4.1/../../../../arm-none-eabi/lib/thumb2/libc.a(lib_a-memset.o)
                              build//usr/local/libmaple/libraries/FreeRTOS/utility/tasks.o (memset)
/usr/local/libmaple/arm/bin/../lib/gcc/arm-none-eabi/4.4.1/../../../../arm-none-eabi/lib/thumb2/libc.a(lib_a-rand.o)
                              build//usr/local/libmaple/wirish/wirish_math.o (rand)
/usr/local/libmaple/arm/bin/../lib/gcc/arm-none-eabi/4.4.1/../../../../arm-none-eabi/lib/thumb2/libc.a(lib_a-sprintf.o)
                              build//usr/local/libmaple/libraries/FreeRTOS/utility/tasks.o (sprintf)
/usr/local/libmaple/arm/bin/../lib/gcc/arm-none-eabi/4.4.1/../../../../arm-none-eabi/lib/thumb2/libc.a(lib_a-strcat.o)
                              build//usr/local/libmaple/libraries/FreeRTOS/utility/tasks.o (strcat)
/usr/local/libmaple/arm/bin/../lib/gcc/arm-none-eabi/4.4.1/../../../../arm-none-eabi/lib/thumb2/libc.a(lib_a-strlen.o)
                              build//usr/local/libmaple/wirish/usb_serial.o (strlen)
/usr/local/libmaple/arm/bin/../lib/gcc/arm-none-eabi/4.4.1/../../../../arm-none-eabi/lib/thumb2/libc.a(lib_a-strncpy.o)
                              build//usr/local/libmaple/libraries/FreeRTOS/utility/tasks.o (strncpy)
/usr/local/libmaple/arm/bin/../lib/gcc/arm-none-eabi/4.4.1/../../../../arm-none-eabi/lib/thumb2/libc.a(lib_a-svfprintf.o)
                              /usr/local/libmaple/arm/bin/../lib/gcc/arm-none-eabi/4.4.1/../../../../arm-none-eabi/lib/thumb2/libc.a(lib_a-sprintf.o) (_svfprintf_r)
/usr/local/libmaple/arm/bin/../lib/gcc/arm-none-eabi/4.4.1/../../../../arm-none-eabi/lib/thumb2/libc.a(lib_a-dtoa.o)
                              /usr/local/libmaple/arm/bin/../lib/gcc/arm-none-eabi/4.4.1/../../../../arm-none-eabi/lib/thumb2/libc.a(lib_a-svfprintf.o) (_dtoa_r)
/usr/local/libmaple/arm/bin/../lib/gcc/arm-none-eabi/4.4.1/../../../../arm-none-eabi/lib/thumb2/libc.a(lib_a-freer.o)
                              /usr/local/libmaple/arm/bin/../lib/gcc/arm-none-eabi/4.4.1/../../../../arm-none-eabi/lib/thumb2/libc.a(lib_a-svfprintf.o) (_free_r)
/usr/local/libmaple/arm/bin/../lib/gcc/arm-none-eabi/4.4.1/../../../../arm-none-eabi/lib/thumb2/libc.a(lib_a-impure.o)
                              /usr/local/libmaple/arm/bin/../lib/gcc/arm-none-eabi/4.4.1/../../../../arm-none-eabi/lib/thumb2/libc.a(lib_a-rand.o) (_impure_ptr)
/usr/local/libmaple/arm/bin/../lib/gcc/arm-none-eabi/4.4.1/../../../../arm-none-eabi/lib/thumb2/libc.a(lib_a-locale.o)
                              /usr/local/libmaple/arm/bin/../lib/gcc/arm-none-eabi/4.4.1/../../../../arm-none-eabi/lib/thumb2/libc.a(lib_a-svfprintf.o) (_localeconv_r)
/usr/local/libmaple/arm/bin/../lib/gcc/arm-none-eabi/4.4.1/../../../../arm-none-eabi/lib/thumb2/libc.a(lib_a-malloc.o)
                              /usr/local/libmaple/arm/bin/../lib/gcc/arm-none-eabi/4.4.1/../../../../arm-none-eabi/lib/thumb2/libc.a(lib_a-rand.o) (malloc)
/usr/local/libmaple/arm/bin/../lib/gcc/arm-none-eabi/4.4.1/../../../../arm-none-eabi/lib/thumb2/libc.a(lib_a-mallocr.o)
                              /usr/local/libmaple/arm/bin/../lib/gcc/arm-none-eabi/4.4.1/../../../../arm-none-eabi/lib/thumb2/libc.a(lib_a-svfprintf.o) (_malloc_r)
/usr/local/libmaple/arm/bin/../lib/gcc/arm-none-eabi/4.4.1/../../../../arm-none-eabi/lib/thumb2/libc.a(lib_a-memchr.o)
                              /usr/local/libmaple/arm/bin/../lib/gcc/arm-none-eabi/4.4.1/../../../../arm-none-eabi/lib/thumb2/libc.a(lib_a-svfprintf.o) (memchr)
/usr/local/libmaple/arm/bin/../lib/gcc/arm-none-eabi/4.4.1/../../../../arm-none-eabi/lib/thumb2/libc.a(lib_a-memmove.o)
                              /usr/local/libmaple/arm/bin/../lib/gcc/arm-none-eabi/4.4.1/../../../../arm-none-eabi/lib/thumb2/libc.a(lib_a-svfprintf.o) (memmove)
/usr/local/libmaple/arm/bin/../lib/gcc/arm-none-eabi/4.4.1/../../../../arm-none-eabi/lib/thumb2/libc.a(lib_a-mlock.o)
                              /usr/local/libmaple/arm/bin/../lib/gcc/arm-none-eabi/4.4.1/../../../../arm-none-eabi/lib/thumb2/libc.a(lib_a-freer.o) (__malloc_lock)
/usr/local/libmaple/arm/bin/../lib/gcc/arm-none-eabi/4.4.1/../../../../arm-none-eabi/lib/thumb2/libc.a(lib_a-mprec.o)
                              /usr/local/libmaple/arm/bin/../lib/gcc/arm-none-eabi/4.4.1/../../../../arm-none-eabi/lib/thumb2/libc.a(lib_a-dtoa.o) (__hi0bits)
/usr/local/libmaple/arm/bin/../lib/gcc/arm-none-eabi/4.4.1/../../../../arm-none-eabi/lib/thumb2/libc.a(lib_a-reallocr.o)
                              /usr/local/libmaple/arm/bin/../lib/gcc/arm-none-eabi/4.4.1/../../../../arm-none-eabi/lib/thumb2/libc.a(lib_a-svfprintf.o) (_realloc_r)
/usr/local/libmaple/arm/bin/../lib/gcc/arm-none-eabi/4.4.1/../../../../arm-none-eabi/lib/thumb2/libc.a(lib_a-s_isinfd.o)
                              /usr/local/libmaple/arm/bin/../lib/gcc/arm-none-eabi/4.4.1/../../../../arm-none-eabi/lib/thumb2/libc.a(lib_a-svfprintf.o) (__isinfd)
/usr/local/libmaple/arm/bin/../lib/gcc/arm-none-eabi/4.4.1/../../../../arm-none-eabi/lib/thumb2/libc.a(lib_a-s_isnand.o)
                              /usr/local/libmaple/arm/bin/../lib/gcc/arm-none-eabi/4.4.1/../../../../arm-none-eabi/lib/thumb2/libc.a(lib_a-svfprintf.o) (__isnand)
/usr/local/libmaple/arm/bin/../lib/gcc/arm-none-eabi/4.4.1/../../../../arm-none-eabi/lib/thumb2/libc.a(lib_a-sbrkr.o)
                              /usr/local/libmaple/arm/bin/../lib/gcc/arm-none-eabi/4.4.1/../../../../arm-none-eabi/lib/thumb2/libc.a(lib_a-freer.o) (_sbrk_r)
/usr/local/libmaple/arm/bin/../lib/gcc/arm-none-eabi/4.4.1/../../../../arm-none-eabi/lib/thumb2/libc.a(lib_a-strcmp.o)
                              /usr/local/libmaple/arm/bin/../lib/gcc/arm-none-eabi/4.4.1/../../../../arm-none-eabi/lib/thumb2/libc.a(lib_a-locale.o) (strcmp)
/usr/local/libmaple/arm/bin/../lib/gcc/arm-none-eabi/4.4.1/../../../../arm-none-eabi/lib/thumb2/libc.a(lib_a-callocr.o)
                              /usr/local/libmaple/arm/bin/../lib/gcc/arm-none-eabi/4.4.1/../../../../arm-none-eabi/lib/thumb2/libc.a(lib_a-mprec.o) (_calloc_r)
/usr/local/libmaple/arm/bin/../lib/gcc/arm-none-eabi/4.4.1/../../../../arm-none-eabi/lib/thumb2/libc.a(lib_a-reent.o)
                              /usr/local/libmaple/arm/bin/../lib/gcc/arm-none-eabi/4.4.1/../../../../arm-none-eabi/lib/thumb2/libc.a(lib_a-sbrkr.o) (errno)
/usr/local/libmaple/arm/bin/../lib/gcc/arm-none-eabi/4.4.1/thumb2/libgcc.a(_divsi3.o)
                              /usr/local/libmaple/arm/bin/../lib/gcc/arm-none-eabi/4.4.1/../../../../arm-none-eabi/lib/thumb2/libc.a(lib_a-svfprintf.o) (__aeabi_idiv)
/usr/local/libmaple/support/ld/libcs3_stm32_med_density.a(stm32_vector_table.o)
                              (__cs3_stm32_vector_table)
/usr/local/libmaple/support/ld/libcs3_stm32_med_density.a(stm32_isrs.o)
                              (__stm32reservedexception7)
/usr/local/libmaple/support/ld/libcs3_stm32_med_density.a(start.o)
                              (_start)
/usr/local/libmaple/support/ld/libcs3_stm32_med_density.a(start_c.o)
                              (__cs3_start_c)
/usr/local/libmaple/arm/bin/../lib/gcc/arm-none-eabi/4.4.1/../../../../arm-none-eabi/lib/thumb2/libc.a(lib_a-init.o)
                              /usr/local/libmaple/support/ld/libcs3_stm32_med_density.a(start_c.o) (__libc_init_array)

Allocating common symbols
Common symbol       size              file

SaveRState          0x2               build//usr/local/libmaple/libmaple/usb/usb_lib/usb_int.o
SaveState           0x2               build//usr/local/libmaple/libmaple/usb/usb_lib/usb_init.o
errno               0x4               /usr/local/libmaple/arm/bin/../lib/gcc/arm-none-eabi/4.4.1/../../../../arm-none-eabi/lib/thumb2/libc.a(lib_a-reent.o)
vcomBufferRx        0xc0              build//usr/local/libmaple/libmaple/usb/usb_callbacks.o
pProperty           0x4               build//usr/local/libmaple/libmaple/usb/usb_lib/usb_init.o
EPindex             0x1               build//usr/local/libmaple/libmaple/usb/usb_lib/usb_init.o
SaveTState          0x2               build//usr/local/libmaple/libmaple/usb/usb_lib/usb_int.o
systick_uptime_millis
                    0x4               build//usr/local/libmaple/libmaple/systick.o
Device_Info         0x1c              build//usr/local/libmaple/libmaple/usb/usb_lib/usb_init.o
pUser_Standard_Requests
                    0x4               build//usr/local/libmaple/libmaple/usb/usb_lib/usb_init.o
StatusInfo          0x2               build//usr/local/libmaple/libmaple/usb/usb_lib/usb_core.o
pInformation        0x4               build//usr/local/libmaple/libmaple/usb/usb_lib/usb_init.o
ResumeS             0x2               build//usr/local/libmaple/libmaple/usb/usb.o
wInterrupt_Mask     0x2               build//usr/local/libmaple/libmaple/usb/usb_lib/usb_init.o

Discarded input sections

 .text          0x00000000        0x0 /usr/local/libmaple/arm/bin/../lib/gcc/arm-none-eabi/4.4.1/thumb2/crti.o
 .data          0x00000000        0x0 /usr/local/libmaple/arm/bin/../lib/gcc/arm-none-eabi/4.4.1/thumb2/crti.o
 .bss           0x00000000        0x0 /usr/local/libmaple/arm/bin/../lib/gcc/arm-none-eabi/4.4.1/thumb2/crti.o
 .data          0x00000000        0x4 /usr/local/libmaple/arm/bin/../lib/gcc/arm-none-eabi/4.4.1/thumb2/crtbegin.o
 .text          0x00000000        0x0 build//usr/local/libmaple/libmaple/adc.o
 .data          0x00000000        0x0 build//usr/local/libmaple/libmaple/adc.o
 .bss           0x00000000        0x0 build//usr/local/libmaple/libmaple/adc.o
 .text          0x00000000        0x0 build//usr/local/libmaple/libmaple/bkp.o
 .data          0x00000000        0x0 build//usr/local/libmaple/libmaple/bkp.o
 .bss           0x00000000        0x0 build//usr/local/libmaple/libmaple/bkp.o
 .text.data_register
                0x00000000       0x18 build//usr/local/libmaple/libmaple/bkp.o
 .text.bkp_write
                0x00000000       0x24 build//usr/local/libmaple/libmaple/bkp.o
 .text.bkp_read
                0x00000000       0x28 build//usr/local/libmaple/libmaple/bkp.o
 .text.bkp_init
                0x00000000       0x18 build//usr/local/libmaple/libmaple/bkp.o
 .text.T.4      0x00000000        0x8 build//usr/local/libmaple/libmaple/bkp.o
 .text.bkp_disable_writes
                0x00000000        0xc build//usr/local/libmaple/libmaple/bkp.o
 .text.bkp_enable_writes
                0x00000000        0xc build//usr/local/libmaple/libmaple/bkp.o
 .data.bkp      0x00000000        0x4 build//usr/local/libmaple/libmaple/bkp.o
 .data.BKP      0x00000000        0x4 build//usr/local/libmaple/libmaple/bkp.o
 .rodata.str1.1
                0x00000000       0x25 build//usr/local/libmaple/libmaple/bkp.o
 .text          0x00000000        0x0 build//usr/local/libmaple/libmaple/dac.o
 .data          0x00000000        0x0 build//usr/local/libmaple/libmaple/dac.o
 .bss           0x00000000        0x0 build//usr/local/libmaple/libmaple/dac.o
 .text          0x00000000        0x0 build//usr/local/libmaple/libmaple/dma.o
 .data          0x00000000        0x0 build//usr/local/libmaple/libmaple/dma.o
 .bss           0x00000000        0x0 build//usr/local/libmaple/libmaple/dma.o
 .text.dma_channel_regs
                0x00000000        0xe build//usr/local/libmaple/libmaple/dma.o
 .text.dma_is_channel_enabled
                0x00000000        0xe build//usr/local/libmaple/libmaple/dma.o
 .text.dma_attach_interrupt
                0x00000000       0x28 build//usr/local/libmaple/libmaple/dma.o
 .text.dma_detach_interrupt
                0x00000000       0x1a build//usr/local/libmaple/libmaple/dma.o
 .text.dma_set_per_addr
                0x00000000       0x30 build//usr/local/libmaple/libmaple/dma.o
 .text.dma_set_mem_addr
                0x00000000       0x30 build//usr/local/libmaple/libmaple/dma.o
 .text.dma_set_priority
                0x00000000       0x34 build//usr/local/libmaple/libmaple/dma.o
 .text.dma_set_num_transfers
                0x00000000       0x2c build//usr/local/libmaple/libmaple/dma.o
 .text.dma_get_irq_cause
                0x00000000       0x60 build//usr/local/libmaple/libmaple/dma.o
 .text.dma_init
                0x00000000        0x6 build//usr/local/libmaple/libmaple/dma.o
 .text.T.23     0x00000000        0xa build//usr/local/libmaple/libmaple/dma.o
 .text.dma_disable
                0x00000000       0x10 build//usr/local/libmaple/libmaple/dma.o
 .text.dma_setup_transfer
                0x00000000       0x38 build//usr/local/libmaple/libmaple/dma.o
 .text.dma_enable
                0x00000000       0x10 build//usr/local/libmaple/libmaple/dma.o
 .rodata.str1.1
                0x00000000       0x5e build//usr/local/libmaple/libmaple/dma.o
 .text          0x00000000        0x0 build//usr/local/libmaple/libmaple/exti.o
 .data          0x00000000        0x0 build//usr/local/libmaple/libmaple/exti.o
 .bss           0x00000000        0x0 build//usr/local/libmaple/libmaple/exti.o
 .text.nvic_irq_disable
                0x00000000       0x20 build//usr/local/libmaple/libmaple/exti.o
 .text.bb_sramp
                0x00000000        0xc build//usr/local/libmaple/libmaple/exti.o
 .text.exti_detach_interrupt
                0x00000000       0x70 build//usr/local/libmaple/libmaple/exti.o
 .text.exti_attach_interrupt
                0x00000000       0xbc build//usr/local/libmaple/libmaple/exti.o
 .bss.exti_9_5_en
                0x00000000        0x2 build//usr/local/libmaple/libmaple/exti.o
 .bss.exti_15_10_en
                0x00000000        0x2 build//usr/local/libmaple/libmaple/exti.o
 .text          0x00000000        0x0 build//usr/local/libmaple/libmaple/flash.o
 .data          0x00000000        0x0 build//usr/local/libmaple/libmaple/flash.o
 .bss           0x00000000        0x0 build//usr/local/libmaple/libmaple/flash.o
 .text          0x00000000        0x0 build//usr/local/libmaple/libmaple/fsmc.o
 .data          0x00000000        0x0 build//usr/local/libmaple/libmaple/fsmc.o
 .bss           0x00000000        0x0 build//usr/local/libmaple/libmaple/fsmc.o
 .text          0x00000000        0x0 build//usr/local/libmaple/libmaple/gpio.o
 .data          0x00000000        0x0 build//usr/local/libmaple/libmaple/gpio.o
 .bss           0x00000000        0x0 build//usr/local/libmaple/libmaple/gpio.o
 .text.afio_exti_select
                0x00000000       0x30 build//usr/local/libmaple/libmaple/gpio.o
 .text.afio_remap
                0x00000000       0x20 build//usr/local/libmaple/libmaple/gpio.o
 .text          0x00000000        0x0 build//usr/local/libmaple/libmaple/iwdg.o
 .data          0x00000000        0x0 build//usr/local/libmaple/libmaple/iwdg.o
 .bss           0x00000000        0x0 build//usr/local/libmaple/libmaple/iwdg.o
 .text.iwdg_feed
                0x00000000       0x10 build//usr/local/libmaple/libmaple/iwdg.o
 .text.iwdg_init
                0x00000000       0x1c build//usr/local/libmaple/libmaple/iwdg.o
 .text          0x00000000        0x0 build//usr/local/libmaple/libmaple/nvic.o
 .data          0x00000000        0x0 build//usr/local/libmaple/libmaple/nvic.o
 .bss           0x00000000        0x0 build//usr/local/libmaple/libmaple/nvic.o
 .text          0x00000000        0x0 build//usr/local/libmaple/libmaple/pwr.o
 .data          0x00000000        0x0 build//usr/local/libmaple/libmaple/pwr.o
 .bss           0x00000000        0x0 build//usr/local/libmaple/libmaple/pwr.o
 .text.pwr_init
                0x00000000       0x12 build//usr/local/libmaple/libmaple/pwr.o
 .text          0x00000000        0x0 build//usr/local/libmaple/libmaple/i2c.o
 .data          0x00000000        0x0 build//usr/local/libmaple/libmaple/i2c.o
 .bss           0x00000000        0x0 build//usr/local/libmaple/libmaple/i2c.o
 .text.gpio_write_bit
                0x00000000       0x18 build//usr/local/libmaple/libmaple/i2c.o
 .text.gpio_read_bit
                0x00000000        0xc build//usr/local/libmaple/libmaple/i2c.o
 .text.nvic_irq_enable
                0x00000000       0x1c build//usr/local/libmaple/libmaple/i2c.o
 .text.i2c_init
                0x00000000       0x14 build//usr/local/libmaple/libmaple/i2c.o
 .text.i2c_master_xfer
                0x00000000       0x74 build//usr/local/libmaple/libmaple/i2c.o
 .text.T.4      0x00000000        0xa build//usr/local/libmaple/libmaple/i2c.o
 .text.i2c_bus_reset
                0x00000000       0x9e build//usr/local/libmaple/libmaple/i2c.o
 .text.i2c_master_enable
                0x00000000       0xec build//usr/local/libmaple/libmaple/i2c.o
 .rodata.str1.1
                0x00000000       0x5f build//usr/local/libmaple/libmaple/i2c.o
 .rodata.I2C1   0x00000000        0x4 build//usr/local/libmaple/libmaple/i2c.o
 .rodata.I2C2   0x00000000        0x4 build//usr/local/libmaple/libmaple/i2c.o
 .text          0x00000000        0x0 build//usr/local/libmaple/libmaple/rcc.o
 .data          0x00000000        0x0 build//usr/local/libmaple/libmaple/rcc.o
 .bss           0x00000000        0x0 build//usr/local/libmaple/libmaple/rcc.o
 .text.rcc_dev_clk
                0x00000000        0xc build//usr/local/libmaple/libmaple/rcc.o
 .text          0x00000000        0x0 build//usr/local/libmaple/libmaple/spi.o
 .data          0x00000000        0x0 build//usr/local/libmaple/libmaple/spi.o
 .bss           0x00000000        0x0 build//usr/local/libmaple/libmaple/spi.o
 .text.spi_tx   0x00000000       0x2a build//usr/local/libmaple/libmaple/spi.o
 .text.spi_foreach
                0x00000000       0x1c build//usr/local/libmaple/libmaple/spi.o
 .text.spi_gpio_cfg
                0x00000000       0x66 build//usr/local/libmaple/libmaple/spi.o
 .text.spi_init
                0x00000000       0x14 build//usr/local/libmaple/libmaple/spi.o
 .text.bb_peri_set_bit
                0x00000000        0xe build//usr/local/libmaple/libmaple/spi.o
 .text.spi_peripheral_enable
                0x00000000        0xa build//usr/local/libmaple/libmaple/spi.o
 .text.spi_peripheral_disable
                0x00000000        0xa build//usr/local/libmaple/libmaple/spi.o
 .text.spi_tx_dma_enable
                0x00000000        0xc build//usr/local/libmaple/libmaple/spi.o
 .text.spi_tx_dma_disable
                0x00000000        0xc build//usr/local/libmaple/libmaple/spi.o
 .text.spi_rx_dma_enable
                0x00000000        0xc build//usr/local/libmaple/libmaple/spi.o
 .text.spi_rx_dma_disable
                0x00000000        0xc build//usr/local/libmaple/libmaple/spi.o
 .text.spi_reconfigure
                0x00000000       0x22 build//usr/local/libmaple/libmaple/spi.o
 .text.spi_slave_enable
                0x00000000        0x8 build//usr/local/libmaple/libmaple/spi.o
 .text.spi_master_enable
                0x00000000        0xc build//usr/local/libmaple/libmaple/spi.o
 .data.spi1     0x00000000        0x8 build//usr/local/libmaple/libmaple/spi.o
 .data.spi2     0x00000000        0x8 build//usr/local/libmaple/libmaple/spi.o
 .data.SPI1     0x00000000        0x4 build//usr/local/libmaple/libmaple/spi.o
 .data.SPI2     0x00000000        0x4 build//usr/local/libmaple/libmaple/spi.o
 .text          0x00000000        0x0 build//usr/local/libmaple/libmaple/syscalls.o
 .data          0x00000000        0x0 build//usr/local/libmaple/libmaple/syscalls.o
 .bss           0x00000000        0x0 build//usr/local/libmaple/libmaple/syscalls.o
 .text._sbrk    0x00000000       0x20 build//usr/local/libmaple/libmaple/syscalls.o
 .text._open    0x00000000        0x8 build//usr/local/libmaple/libmaple/syscalls.o
 .text._close   0x00000000        0x4 build//usr/local/libmaple/libmaple/syscalls.o
 .text._fstat   0x00000000        0xa build//usr/local/libmaple/libmaple/syscalls.o
 .text._isatty  0x00000000        0x4 build//usr/local/libmaple/libmaple/syscalls.o
 .text.isatty   0x00000000        0x4 build//usr/local/libmaple/libmaple/syscalls.o
 .text._lseek   0x00000000        0x6 build//usr/local/libmaple/libmaple/syscalls.o
 .text.getch    0x00000000        0x4 build//usr/local/libmaple/libmaple/syscalls.o
 .text._read    0x00000000        0x8 build//usr/local/libmaple/libmaple/syscalls.o
 .text.putch    0x00000000        0x2 build//usr/local/libmaple/libmaple/syscalls.o
 .text.cgets    0x00000000       0x22 build//usr/local/libmaple/libmaple/syscalls.o
 .text._write   0x00000000        0x4 build//usr/local/libmaple/libmaple/syscalls.o
 .text.fgets    0x00000000        0xc build//usr/local/libmaple/libmaple/syscalls.o
 .bss.heap_ptr.1610
                0x00000000        0x4 build//usr/local/libmaple/libmaple/syscalls.o
 .text          0x00000000        0x0 build//usr/local/libmaple/libmaple/systick.o
 .data          0x00000000        0x0 build//usr/local/libmaple/libmaple/systick.o
 .bss           0x00000000        0x0 build//usr/local/libmaple/libmaple/systick.o
 .text.systick_disable
                0x00000000        0xc build//usr/local/libmaple/libmaple/systick.o
 .text.systick_attach_callback
                0x00000000        0xc build//usr/local/libmaple/libmaple/systick.o
 .text          0x00000000        0x0 build//usr/local/libmaple/libmaple/timer.o
 .data          0x00000000        0x0 build//usr/local/libmaple/libmaple/timer.o
 .bss           0x00000000        0x0 build//usr/local/libmaple/libmaple/timer.o
 .text.nvic_irq_enable
                0x00000000       0x1c build//usr/local/libmaple/libmaple/timer.o
 .text.timer_attach_interrupt
                0x00000000       0x98 build//usr/local/libmaple/libmaple/timer.o
 .text          0x00000000        0x0 build//usr/local/libmaple/libmaple/usart.o
 .data          0x00000000        0x0 build//usr/local/libmaple/libmaple/usart.o
 .bss           0x00000000        0x0 build//usr/local/libmaple/libmaple/usart.o
 .text          0x00000000        0x0 build//usr/local/libmaple/libmaple/util.o
 .data          0x00000000        0x0 build//usr/local/libmaple/libmaple/util.o
 .bss           0x00000000        0x0 build//usr/local/libmaple/libmaple/util.o
 .text          0x00000000        0x0 build//usr/local/libmaple/libmaple/usb/descriptors.o
 .data          0x00000000        0x0 build//usr/local/libmaple/libmaple/usb/descriptors.o
 .bss           0x00000000        0x0 build//usr/local/libmaple/libmaple/usb/descriptors.o
 .text          0x00000000        0x0 build//usr/local/libmaple/libmaple/usb/usb.o
 .data          0x00000000        0x0 build//usr/local/libmaple/libmaple/usb/usb.o
 .bss           0x00000000        0x0 build//usr/local/libmaple/libmaple/usb/usb.o
 .text.usbPowerOff
                0x00000000       0x1c build//usr/local/libmaple/libmaple/usb/usb.o
 .text.usbGetDTR
                0x00000000       0x10 build//usr/local/libmaple/libmaple/usb/usb.o
 .text.usbGetRTS
                0x00000000       0x10 build//usr/local/libmaple/libmaple/usb/usb.o
 .text.usbGetPending
                0x00000000        0xc build//usr/local/libmaple/libmaple/usb/usb.o
 .text.usbSendHello
                0x00000000       0x74 build//usr/local/libmaple/libmaple/usb/usb.o
 .text.usbBlockingSendByte
                0x00000000       0x5c build//usr/local/libmaple/libmaple/usb/usb.o
 .text.usbDsbISR
                0x00000000       0x1e build//usr/local/libmaple/libmaple/usb/usb.o
 .text.disableUSB
                0x00000000       0x18 build//usr/local/libmaple/libmaple/usb/usb.o
 .rodata.str1.1
                0x00000000        0x3 build//usr/local/libmaple/libmaple/usb/usb.o
 .text          0x00000000        0x0 build//usr/local/libmaple/libmaple/usb/usb_callbacks.o
 .data          0x00000000        0x0 build//usr/local/libmaple/libmaple/usb/usb_callbacks.o
 .bss           0x00000000        0x0 build//usr/local/libmaple/libmaple/usb/usb_callbacks.o
 .text.vcomSetLineState
                0x00000000        0x2 build//usr/local/libmaple/libmaple/usb/usb_callbacks.o
 .text          0x00000000        0x0 build//usr/local/libmaple/libmaple/usb/usb_hardware.o
 .data          0x00000000        0x0 build//usr/local/libmaple/libmaple/usb/usb_hardware.o
 .bss           0x00000000        0x0 build//usr/local/libmaple/libmaple/usb/usb_hardware.o
 .text.nvicDisableInterrupts
                0x00000000       0x24 build//usr/local/libmaple/libmaple/usb/usb_hardware.o
 .text          0x00000000        0x0 build//usr/local/libmaple/libmaple/usb/usb_lib/usb_core.o
 .data          0x00000000        0x0 build//usr/local/libmaple/libmaple/usb/usb_lib/usb_core.o
 .bss           0x00000000        0x0 build//usr/local/libmaple/libmaple/usb/usb_lib/usb_core.o
 .text          0x00000000        0x0 build//usr/local/libmaple/libmaple/usb/usb_lib/usb_init.o
 .data          0x00000000        0x0 build//usr/local/libmaple/libmaple/usb/usb_lib/usb_init.o
 .bss           0x00000000        0x0 build//usr/local/libmaple/libmaple/usb/usb_lib/usb_init.o
 .text          0x00000000        0x0 build//usr/local/libmaple/libmaple/usb/usb_lib/usb_int.o
 .data          0x00000000        0x0 build//usr/local/libmaple/libmaple/usb/usb_lib/usb_int.o
 .bss           0x00000000        0x0 build//usr/local/libmaple/libmaple/usb/usb_lib/usb_int.o
 .text.CTR_HP   0x00000000       0x84 build//usr/local/libmaple/libmaple/usb/usb_lib/usb_int.o
 .text          0x00000000        0x0 build//usr/local/libmaple/libmaple/usb/usb_lib/usb_mem.o
 .data          0x00000000        0x0 build//usr/local/libmaple/libmaple/usb/usb_lib/usb_mem.o
 .bss           0x00000000        0x0 build//usr/local/libmaple/libmaple/usb/usb_lib/usb_mem.o
 .text          0x00000000        0x0 build//usr/local/libmaple/libmaple/usb/usb_lib/usb_regs.o
 .data          0x00000000        0x0 build//usr/local/libmaple/libmaple/usb/usb_lib/usb_regs.o
 .bss           0x00000000        0x0 build//usr/local/libmaple/libmaple/usb/usb_lib/usb_regs.o
 .text.SetCNTR  0x00000000        0xc build//usr/local/libmaple/libmaple/usb/usb_lib/usb_regs.o
 .text.GetCNTR  0x00000000        0xc build//usr/local/libmaple/libmaple/usb/usb_lib/usb_regs.o
 .text.SetISTR  0x00000000        0xc build//usr/local/libmaple/libmaple/usb/usb_lib/usb_regs.o
 .text.GetISTR  0x00000000        0xc build//usr/local/libmaple/libmaple/usb/usb_lib/usb_regs.o
 .text.GetFNR   0x00000000        0xc build//usr/local/libmaple/libmaple/usb/usb_lib/usb_regs.o
 .text.SetDADDR
                0x00000000        0xc build//usr/local/libmaple/libmaple/usb/usb_lib/usb_regs.o
 .text.GetDADDR
                0x00000000        0xc build//usr/local/libmaple/libmaple/usb/usb_lib/usb_regs.o
 .text.SetBTABLE
                0x00000000       0x14 build//usr/local/libmaple/libmaple/usb/usb_lib/usb_regs.o
 .text.GetBTABLE
                0x00000000        0xc build//usr/local/libmaple/libmaple/usb/usb_lib/usb_regs.o
 .text.SetENDPOINT
                0x00000000        0xe build//usr/local/libmaple/libmaple/usb/usb_lib/usb_regs.o
 .text.GetENDPOINT
                0x00000000       0x10 build//usr/local/libmaple/libmaple/usb/usb_lib/usb_regs.o
 .text.GetEPType
                0x00000000       0x12 build//usr/local/libmaple/libmaple/usb/usb_lib/usb_regs.o
 .text.SetDouBleBuffEPStall
                0x00000000       0x36 build//usr/local/libmaple/libmaple/usb/usb_lib/usb_regs.o
 .text.GetEPTxStatus
                0x00000000       0x12 build//usr/local/libmaple/libmaple/usb/usb_lib/usb_regs.o
 .text.GetEPRxStatus
                0x00000000       0x12 build//usr/local/libmaple/libmaple/usb/usb_lib/usb_regs.o
 .text.SetEPTxValid
                0x00000000       0x1c build//usr/local/libmaple/libmaple/usb/usb_lib/usb_regs.o
 .text.SetEP_KIND
                0x00000000       0x1c build//usr/local/libmaple/libmaple/usb/usb_lib/usb_regs.o
 .text.ClearEP_KIND
                0x00000000       0x18 build//usr/local/libmaple/libmaple/usb/usb_lib/usb_regs.o
 .text.Set_Status_Out
                0x00000000       0x1c build//usr/local/libmaple/libmaple/usb/usb_lib/usb_regs.o
 .text.SetEPDoubleBuff
                0x00000000       0x1c build//usr/local/libmaple/libmaple/usb/usb_lib/usb_regs.o
 .text.ClearEPDoubleBuff
                0x00000000       0x18 build//usr/local/libmaple/libmaple/usb/usb_lib/usb_regs.o
 .text.GetTxStallStatus
                0x00000000       0x1a build//usr/local/libmaple/libmaple/usb/usb_lib/usb_regs.o
 .text.GetRxStallStatus
                0x00000000       0x1c build//usr/local/libmaple/libmaple/usb/usb_lib/usb_regs.o
 .text.ClearEP_CTR_RX
                0x00000000       0x18 build//usr/local/libmaple/libmaple/usb/usb_lib/usb_regs.o
 .text.ClearEP_CTR_TX
                0x00000000       0x18 build//usr/local/libmaple/libmaple/usb/usb_lib/usb_regs.o
 .text.ToggleDTOG_RX
                0x00000000       0x1c build//usr/local/libmaple/libmaple/usb/usb_lib/usb_regs.o
 .text.ToggleDTOG_TX
                0x00000000       0x1c build//usr/local/libmaple/libmaple/usb/usb_lib/usb_regs.o
 .text.SetEPAddress
                0x00000000       0x1a build//usr/local/libmaple/libmaple/usb/usb_lib/usb_regs.o
 .text.GetEPAddress
                0x00000000       0x12 build//usr/local/libmaple/libmaple/usb/usb_lib/usb_regs.o
 .text.SetEPCountRxReg
                0x00000000       0x28 build//usr/local/libmaple/libmaple/usb/usb_lib/usb_regs.o
 .text.GetEPTxCount
                0x00000000       0x20 build//usr/local/libmaple/libmaple/usb/usb_lib/usb_regs.o
 .text.SetEPDblBuffAddr
                0x00000000       0x40 build//usr/local/libmaple/libmaple/usb/usb_lib/usb_regs.o
 .text.SetEPDblBuf0Addr
                0x00000000       0x24 build//usr/local/libmaple/libmaple/usb/usb_lib/usb_regs.o
 .text.SetEPDblBuf1Addr
                0x00000000       0x24 build//usr/local/libmaple/libmaple/usb/usb_lib/usb_regs.o
 .text.GetEPDblBuf0Addr
                0x00000000       0x1c build//usr/local/libmaple/libmaple/usb/usb_lib/usb_regs.o
 .text.GetEPDblBuf1Addr
                0x00000000       0x1c build//usr/local/libmaple/libmaple/usb/usb_lib/usb_regs.o
 .text.SetEPDblBuffCount
                0x00000000       0xa8 build//usr/local/libmaple/libmaple/usb/usb_lib/usb_regs.o
 .text.SetEPDblBuf0Count
                0x00000000       0x5c build//usr/local/libmaple/libmaple/usb/usb_lib/usb_regs.o
 .text.SetEPDblBuf1Count
                0x00000000       0x5c build//usr/local/libmaple/libmaple/usb/usb_lib/usb_regs.o
 .text.GetEPDblBuf0Count
                0x00000000       0x20 build//usr/local/libmaple/libmaple/usb/usb_lib/usb_regs.o
 .text.GetEPDblBuf1Count
                0x00000000       0x20 build//usr/local/libmaple/libmaple/usb/usb_lib/usb_regs.o
 .text.GetEPDblBufDir
                0x00000000       0x44 build//usr/local/libmaple/libmaple/usb/usb_lib/usb_regs.o
 .text.FreeUserBuffer
                0x00000000       0x40 build//usr/local/libmaple/libmaple/usb/usb_lib/usb_regs.o
 .text.ToWord   0x00000000        0x6 build//usr/local/libmaple/libmaple/usb/usb_lib/usb_regs.o
 .data          0x00000000        0x0 build//usr/local/libmaple/libmaple/exc.o
 .bss           0x00000000        0x0 build//usr/local/libmaple/libmaple/exc.o
 .text          0x00000000        0x0 build//usr/local/libmaple/wirish/wirish_math.o
 .data          0x00000000        0x0 build//usr/local/libmaple/wirish/wirish_math.o
 .bss           0x00000000        0x0 build//usr/local/libmaple/wirish/wirish_math.o
 .text._Z6randoml
                0x00000000       0x16 build//usr/local/libmaple/wirish/wirish_math.o
 .text._Z6randomll
                0x00000000       0x14 build//usr/local/libmaple/wirish/wirish_math.o
 .text._Z10randomSeedj
                0x00000000        0x8 build//usr/local/libmaple/wirish/wirish_math.o
 .text          0x00000000        0x0 build//usr/local/libmaple/wirish/Print.o
 .data          0x00000000        0x0 build//usr/local/libmaple/wirish/Print.o
 .bss           0x00000000        0x0 build//usr/local/libmaple/wirish/Print.o
 .text._ZN5Print7printlnEc
                0x00000000       0x12 build//usr/local/libmaple/wirish/Print.o
 .text._ZN5Print7printlnEyi
                0x00000000       0x18 build//usr/local/libmaple/wirish/Print.o
 .text._ZN5Print7printlnEmi
                0x00000000       0x1a build//usr/local/libmaple/wirish/Print.o
 .text._ZN5Print5printEmi
                0x00000000        0xe build//usr/local/libmaple/wirish/Print.o
 .text._ZN5Print7printlnExi
                0x00000000       0x18 build//usr/local/libmaple/wirish/Print.o
 .text._ZN5Print7printlnEli
                0x00000000       0x1c build//usr/local/libmaple/wirish/Print.o
 .text._ZN5Print5printEli
                0x00000000       0x10 build//usr/local/libmaple/wirish/Print.o
 .text          0x00000000        0x0 build//usr/local/libmaple/wirish/boards.o
 .data          0x00000000        0x0 build//usr/local/libmaple/wirish/boards.o
 .bss           0x00000000        0x0 build//usr/local/libmaple/wirish/boards.o
 .text          0x00000000        0x0 build//usr/local/libmaple/wirish/boards/maple.o
 .data          0x00000000        0x0 build//usr/local/libmaple/wirish/boards/maple.o
 .bss           0x00000000        0x0 build//usr/local/libmaple/wirish/boards/maple.o
 .text          0x00000000        0x0 build//usr/local/libmaple/wirish/boards/maple_mini.o
 .data          0x00000000        0x0 build//usr/local/libmaple/wirish/boards/maple_mini.o
 .bss           0x00000000        0x0 build//usr/local/libmaple/wirish/boards/maple_mini.o
 .text          0x00000000        0x0 build//usr/local/libmaple/wirish/boards/maple_native.o
 .data          0x00000000        0x0 build//usr/local/libmaple/wirish/boards/maple_native.o
 .bss           0x00000000        0x0 build//usr/local/libmaple/wirish/boards/maple_native.o
 .text          0x00000000        0x0 build//usr/local/libmaple/wirish/boards/maple_RET6.o
 .data          0x00000000        0x0 build//usr/local/libmaple/wirish/boards/maple_RET6.o
 .bss           0x00000000        0x0 build//usr/local/libmaple/wirish/boards/maple_RET6.o
 .group         0x00000000        0x8 build//usr/local/libmaple/wirish/comm/HardwareSerial.o
 .text          0x00000000        0x0 build//usr/local/libmaple/wirish/comm/HardwareSerial.o
 .data          0x00000000        0x0 build//usr/local/libmaple/wirish/comm/HardwareSerial.o
 .bss           0x00000000        0x0 build//usr/local/libmaple/wirish/comm/HardwareSerial.o
 .text._ZN14HardwareSerialC2EP9usart_devhhj
                0x00000000       0x24 build//usr/local/libmaple/wirish/comm/HardwareSerial.o
 .text._ZN14HardwareSerial5flushEv
                0x00000000        0xa build//usr/local/libmaple/wirish/comm/HardwareSerial.o
 .text          0x00000000        0x0 build//usr/local/libmaple/wirish/comm/HardwareSPI.o
 .data          0x00000000        0x0 build//usr/local/libmaple/wirish/comm/HardwareSPI.o
 .bss           0x00000000        0x0 build//usr/local/libmaple/wirish/comm/HardwareSPI.o
 .text.spi_is_rx_nonempty
                0x00000000        0xa build//usr/local/libmaple/wirish/comm/HardwareSPI.o
 .text._ZN11HardwareSPI4readEPhj
                0x00000000       0x26 build//usr/local/libmaple/wirish/comm/HardwareSPI.o
 .text._ZN11HardwareSPI4readEv
                0x00000000       0x10 build//usr/local/libmaple/wirish/comm/HardwareSPI.o
 .text._ZN11HardwareSPI4recvEv
                0x00000000        0x4 build//usr/local/libmaple/wirish/comm/HardwareSPI.o
 .text._ZN11HardwareSPI5writeEPKhj
                0x00000000       0x1e build//usr/local/libmaple/wirish/comm/HardwareSPI.o
 .text._ZN11HardwareSPI5writeEh
                0x00000000       0x12 build//usr/local/libmaple/wirish/comm/HardwareSPI.o
 .text._ZN11HardwareSPI4sendEPhj
                0x00000000       0x2a build//usr/local/libmaple/wirish/comm/HardwareSPI.o
 .text._ZN11HardwareSPI4sendEh
                0x00000000       0x12 build//usr/local/libmaple/wirish/comm/HardwareSPI.o
 .text._ZN11HardwareSPI8transferEh
                0x00000000       0x12 build//usr/local/libmaple/wirish/comm/HardwareSPI.o
 .text._ZN11HardwareSPI3endEv
                0x00000000       0x4e build//usr/local/libmaple/wirish/comm/HardwareSPI.o
 .text._ZN11HardwareSPIC1Ej
                0x00000000       0x38 build//usr/local/libmaple/wirish/comm/HardwareSPI.o
 .text._ZN11HardwareSPIC2Ej
                0x00000000       0x38 build//usr/local/libmaple/wirish/comm/HardwareSPI.o
 .text._ZL11disable_pwmPK14stm32_pin_info
                0x00000000       0x10 build//usr/local/libmaple/wirish/comm/HardwareSPI.o
 .text._ZL15configure_gpiosP7spi_devb
                0x00000000       0xa8 build//usr/local/libmaple/wirish/comm/HardwareSPI.o
 .text._ZL13enable_deviceP7spi_devb12SPIFrequency12spi_cfg_flag8spi_mode
                0x00000000       0x98 build//usr/local/libmaple/wirish/comm/HardwareSPI.o
 .text._ZN11HardwareSPI10beginSlaveEjj
                0x00000000       0x3c build//usr/local/libmaple/wirish/comm/HardwareSPI.o
 .text._ZN11HardwareSPI10beginSlaveEv
                0x00000000        0x8 build//usr/local/libmaple/wirish/comm/HardwareSPI.o
 .text._ZN11HardwareSPI5beginE12SPIFrequencyjj
                0x00000000       0x3c build//usr/local/libmaple/wirish/comm/HardwareSPI.o
 .text._ZN11HardwareSPI5beginEv
                0x00000000        0xa build//usr/local/libmaple/wirish/comm/HardwareSPI.o
 .USER_FLASH    0x00000000        0x8 build//usr/local/libmaple/wirish/comm/HardwareSPI.o
 .rodata._ZZL15configure_gpiosP7spi_devbE4C.28
                0x00000000        0x8 build//usr/local/libmaple/wirish/comm/HardwareSPI.o
 .rodata.str1.1
                0x00000000       0x32 build//usr/local/libmaple/wirish/comm/HardwareSPI.o
 .text          0x00000000        0x0 build//usr/local/libmaple/wirish/HardwareTimer.o
 .data          0x00000000        0x0 build//usr/local/libmaple/wirish/HardwareTimer.o
 .bss           0x00000000        0x0 build//usr/local/libmaple/wirish/HardwareTimer.o
 .text._ZN13HardwareTimer17getPrescaleFactorEv
                0x00000000        0xc build//usr/local/libmaple/wirish/HardwareTimer.o
 .text._ZN13HardwareTimer17setPrescaleFactorEj
                0x00000000        0xc build//usr/local/libmaple/wirish/HardwareTimer.o
 .text._ZN13HardwareTimer11getOverflowEv
                0x00000000        0xa build//usr/local/libmaple/wirish/HardwareTimer.o
 .text._ZN13HardwareTimer11setOverflowEt
                0x00000000        0x8 build//usr/local/libmaple/wirish/HardwareTimer.o
 .text._ZN13HardwareTimer8getCountEv
                0x00000000        0xa build//usr/local/libmaple/wirish/HardwareTimer.o
 .text._ZN13HardwareTimer8setCountEt
                0x00000000       0x12 build//usr/local/libmaple/wirish/HardwareTimer.o
 .text._ZN13HardwareTimer9setPeriodEj
                0x00000000       0x60 build//usr/local/libmaple/wirish/HardwareTimer.o
 .text._ZN13HardwareTimer10getCompareEi
                0x00000000       0x12 build//usr/local/libmaple/wirish/HardwareTimer.o
 .text._ZN13HardwareTimer10setCompareEit
                0x00000000       0x1a build//usr/local/libmaple/wirish/HardwareTimer.o
 .text._ZN13HardwareTimer15detachInterruptEi
                0x00000000        0x8 build//usr/local/libmaple/wirish/HardwareTimer.o
 .text._ZN13HardwareTimer15attachInterruptEiPFvvE
                0x00000000        0x8 build//usr/local/libmaple/wirish/HardwareTimer.o
 .text._ZN13HardwareTimer7setModeEi10timer_mode
                0x00000000        0x8 build//usr/local/libmaple/wirish/HardwareTimer.o
 .text._ZN13HardwareTimerC2Eh
                0x00000000       0x58 build//usr/local/libmaple/wirish/HardwareTimer.o
 .text.T.11     0x00000000        0x8 build//usr/local/libmaple/wirish/HardwareTimer.o
 .text._ZN13HardwareTimer7refreshEv
                0x00000000       0x12 build//usr/local/libmaple/wirish/HardwareTimer.o
 .text._ZN13HardwareTimer6resumeEv
                0x00000000       0x10 build//usr/local/libmaple/wirish/HardwareTimer.o
 .text._ZN13HardwareTimer5pauseEv
                0x00000000       0x10 build//usr/local/libmaple/wirish/HardwareTimer.o
 .group         0x00000000        0x8 build//usr/local/libmaple/wirish/usb_serial.o
 .text          0x00000000        0x0 build//usr/local/libmaple/wirish/usb_serial.o
 .data          0x00000000        0x0 build//usr/local/libmaple/wirish/usb_serial.o
 .bss           0x00000000        0x0 build//usr/local/libmaple/wirish/usb_serial.o
 .text._ZN5PrintC2Ev
                0x00000000        0xc build//usr/local/libmaple/wirish/usb_serial.o
 .text._ZN9USBSerialC2Ev
                0x00000000       0x14 build//usr/local/libmaple/wirish/usb_serial.o
 .text._ZN9USBSerial6getRTSEv
                0x00000000        0x4 build//usr/local/libmaple/wirish/usb_serial.o
 .text._ZN9USBSerial6getDTREv
                0x00000000        0x4 build//usr/local/libmaple/wirish/usb_serial.o
 .text._ZN9USBSerial11isConnectedEv
                0x00000000       0x16 build//usr/local/libmaple/wirish/usb_serial.o
 .text._ZN9USBSerial7pendingEv
                0x00000000        0xa build//usr/local/libmaple/wirish/usb_serial.o
 .text._ZN9USBSerial3endEv
                0x00000000        0x4 build//usr/local/libmaple/wirish/usb_serial.o
 .text._ZN9USBSerial5beginEv
                0x00000000        0x4 build//usr/local/libmaple/wirish/usb_serial.o
 .text          0x00000000        0x0 build//usr/local/libmaple/wirish/cxxabi-compat.o
 .data          0x00000000        0x0 build//usr/local/libmaple/wirish/cxxabi-compat.o
 .bss           0x00000000        0x0 build//usr/local/libmaple/wirish/cxxabi-compat.o
 .text          0x00000000        0x0 build//usr/local/libmaple/wirish/wirish_shift.o
 .data          0x00000000        0x0 build//usr/local/libmaple/wirish/wirish_shift.o
 .bss           0x00000000        0x0 build//usr/local/libmaple/wirish/wirish_shift.o
 .text._Z8shiftOuthhhh
                0x00000000       0x42 build//usr/local/libmaple/wirish/wirish_shift.o
 .text          0x00000000        0x0 build//usr/local/libmaple/wirish/wirish_analog.o
 .data          0x00000000        0x0 build//usr/local/libmaple/wirish/wirish_analog.o
 .bss           0x00000000        0x0 build//usr/local/libmaple/wirish/wirish_analog.o
 .text          0x00000000        0x0 build//usr/local/libmaple/wirish/wirish_time.o
 .data          0x00000000        0x0 build//usr/local/libmaple/wirish/wirish_time.o
 .bss           0x00000000        0x0 build//usr/local/libmaple/wirish/wirish_time.o
 .text          0x00000000        0x0 build//usr/local/libmaple/wirish/pwm.o
 .data          0x00000000        0x0 build//usr/local/libmaple/wirish/pwm.o
 .bss           0x00000000        0x0 build//usr/local/libmaple/wirish/pwm.o
 .text          0x00000000        0x0 build//usr/local/libmaple/wirish/ext_interrupts.o
 .data          0x00000000        0x0 build//usr/local/libmaple/wirish/ext_interrupts.o
 .bss           0x00000000        0x0 build//usr/local/libmaple/wirish/ext_interrupts.o
 .text._Z15detachInterrupth
                0x00000000       0x18 build//usr/local/libmaple/wirish/ext_interrupts.o
 .text._Z15attachInterrupthPFvvE17ExtIntTriggerMode
                0x00000000       0x4c build//usr/local/libmaple/wirish/ext_interrupts.o
 .rodata.str1.1
                0x00000000       0x30 build//usr/local/libmaple/wirish/ext_interrupts.o
 .text          0x00000000        0x0 build//usr/local/libmaple/wirish/wirish_digital.o
 .data          0x00000000        0x0 build//usr/local/libmaple/wirish/wirish_digital.o
 .bss           0x00000000        0x0 build//usr/local/libmaple/wirish/wirish_digital.o
 .text._Z18waitForButtonPressj
                0x00000000       0x40 build//usr/local/libmaple/wirish/wirish_digital.o
 .group         0x00000000        0x8 build//usr/local/libmaple/libraries/Servo/Servo.o
 .text          0x00000000        0x0 build//usr/local/libmaple/libraries/Servo/Servo.o
 .data          0x00000000        0x0 build//usr/local/libmaple/libraries/Servo/Servo.o
 .bss           0x00000000        0x0 build//usr/local/libmaple/libraries/Servo/Servo.o
 .text._ZNK5Servo8attachedEv
                0x00000000        0xe build//usr/local/libmaple/libraries/Servo/Servo.o
 .text._ZL3maplllll
                0x00000000       0x1a build//usr/local/libmaple/libraries/Servo/Servo.o
 .text._ZN5Servo11resetFieldsEv
                0x00000000       0x20 build//usr/local/libmaple/libraries/Servo/Servo.o
 .text._ZN5ServoC1Ev
                0x00000000        0xc build//usr/local/libmaple/libraries/Servo/Servo.o
 .text._ZN5ServoC2Ev
                0x00000000        0xc build//usr/local/libmaple/libraries/Servo/Servo.o
 .text._ZNK5Servo16readMicrosecondsEv
                0x00000000       0x68 build//usr/local/libmaple/libraries/Servo/Servo.o
 .text._ZNK5Servo4readEv
                0x00000000       0x2a build//usr/local/libmaple/libraries/Servo/Servo.o
 .text._ZN5Servo17writeMicrosecondsEt
                0x00000000       0x54 build//usr/local/libmaple/libraries/Servo/Servo.o
 .text._ZN5Servo5writeEi
                0x00000000       0x38 build//usr/local/libmaple/libraries/Servo/Servo.o
 .text._ZN5Servo6detachEv
                0x00000000       0x30 build//usr/local/libmaple/libraries/Servo/Servo.o
 .text.T.17     0x00000000        0x8 build//usr/local/libmaple/libraries/Servo/Servo.o
 .text._ZN5Servo6attachEhttss
                0x00000000       0x78 build//usr/local/libmaple/libraries/Servo/Servo.o
 .rodata.str1.1
                0x00000000       0x30 build//usr/local/libmaple/libraries/Servo/Servo.o
 .group         0x00000000        0x8 build//usr/local/libmaple/libraries/LiquidCrystal/LiquidCrystal.o
 .group         0x00000000        0x8 build//usr/local/libmaple/libraries/LiquidCrystal/LiquidCrystal.o
 .group         0x00000000        0x8 build//usr/local/libmaple/libraries/LiquidCrystal/LiquidCrystal.o
 .group         0x00000000        0x8 build//usr/local/libmaple/libraries/LiquidCrystal/LiquidCrystal.o
 .text          0x00000000        0x0 build//usr/local/libmaple/libraries/LiquidCrystal/LiquidCrystal.o
 .data          0x00000000        0x0 build//usr/local/libmaple/libraries/LiquidCrystal/LiquidCrystal.o
 .bss           0x00000000        0x0 build//usr/local/libmaple/libraries/LiquidCrystal/LiquidCrystal.o
 .text._ZN5PrintC2Ev
                0x00000000        0xc build//usr/local/libmaple/libraries/LiquidCrystal/LiquidCrystal.o
 .text._ZN13LiquidCrystal11pulseEnableEv
                0x00000000       0x2e build//usr/local/libmaple/libraries/LiquidCrystal/LiquidCrystal.o
 .text._ZN13LiquidCrystal10write8bitsEh
                0x00000000       0x28 build//usr/local/libmaple/libraries/LiquidCrystal/LiquidCrystal.o
 .text._ZN13LiquidCrystal10write4bitsEh
                0x00000000       0x28 build//usr/local/libmaple/libraries/LiquidCrystal/LiquidCrystal.o
 .text._ZN13LiquidCrystal4sendEhh
                0x00000000       0x40 build//usr/local/libmaple/libraries/LiquidCrystal/LiquidCrystal.o
 .text._ZN13LiquidCrystal7commandEh
                0x00000000        0x6 build//usr/local/libmaple/libraries/LiquidCrystal/LiquidCrystal.o
 .text._ZN13LiquidCrystal10createCharEhPh
                0x00000000       0x28 build//usr/local/libmaple/libraries/LiquidCrystal/LiquidCrystal.o
 .text._ZN13LiquidCrystal12noAutoscrollEv
                0x00000000       0x10 build//usr/local/libmaple/libraries/LiquidCrystal/LiquidCrystal.o
 .text._ZN13LiquidCrystal10autoscrollEv
                0x00000000       0x10 build//usr/local/libmaple/libraries/LiquidCrystal/LiquidCrystal.o
 .text._ZN13LiquidCrystal11rightToLeftEv
                0x00000000       0x10 build//usr/local/libmaple/libraries/LiquidCrystal/LiquidCrystal.o
 .text._ZN13LiquidCrystal11leftToRightEv
                0x00000000       0x10 build//usr/local/libmaple/libraries/LiquidCrystal/LiquidCrystal.o
 .text._ZN13LiquidCrystal18scrollDisplayRightEv
                0x00000000        0x6 build//usr/local/libmaple/libraries/LiquidCrystal/LiquidCrystal.o
 .text._ZN13LiquidCrystal17scrollDisplayLeftEv
                0x00000000        0x6 build//usr/local/libmaple/libraries/LiquidCrystal/LiquidCrystal.o
 .text._ZN13LiquidCrystal5blinkEv
                0x00000000       0x10 build//usr/local/libmaple/libraries/LiquidCrystal/LiquidCrystal.o
 .text._ZN13LiquidCrystal7noBlinkEv
                0x00000000       0x10 build//usr/local/libmaple/libraries/LiquidCrystal/LiquidCrystal.o
 .text._ZN13LiquidCrystal6cursorEv
                0x00000000       0x10 build//usr/local/libmaple/libraries/LiquidCrystal/LiquidCrystal.o
 .text._ZN13LiquidCrystal8noCursorEv
                0x00000000       0x10 build//usr/local/libmaple/libraries/LiquidCrystal/LiquidCrystal.o
 .text._ZN13LiquidCrystal7displayEv
                0x00000000       0x10 build//usr/local/libmaple/libraries/LiquidCrystal/LiquidCrystal.o
 .text._ZN13LiquidCrystal9noDisplayEv
                0x00000000       0x10 build//usr/local/libmaple/libraries/LiquidCrystal/LiquidCrystal.o
 .text._ZN13LiquidCrystal9setCursorEhh
                0x00000000       0x44 build//usr/local/libmaple/libraries/LiquidCrystal/LiquidCrystal.o
 .text._ZN13LiquidCrystal5writeEh
                0x00000000        0x6 build//usr/local/libmaple/libraries/LiquidCrystal/LiquidCrystal.o
 .text._ZN13LiquidCrystal4homeEv
                0x00000000       0x12 build//usr/local/libmaple/libraries/LiquidCrystal/LiquidCrystal.o
 .text._ZN13LiquidCrystal5clearEv
                0x00000000       0x12 build//usr/local/libmaple/libraries/LiquidCrystal/LiquidCrystal.o
 .text._ZN13LiquidCrystal5beginEhhh
                0x00000000       0xda build//usr/local/libmaple/libraries/LiquidCrystal/LiquidCrystal.o
 .text._ZN13LiquidCrystal4initEhhhhhhhhhhhh
                0x00000000       0x9c build//usr/local/libmaple/libraries/LiquidCrystal/LiquidCrystal.o
 .text._ZN13LiquidCrystalC1Ehhhhhh
                0x00000000       0x54 build//usr/local/libmaple/libraries/LiquidCrystal/LiquidCrystal.o
 .text._ZN13LiquidCrystalC2Ehhhhhh
                0x00000000       0x54 build//usr/local/libmaple/libraries/LiquidCrystal/LiquidCrystal.o
 .text._ZN13LiquidCrystalC1Ehhhhhhh
                0x00000000       0x5c build//usr/local/libmaple/libraries/LiquidCrystal/LiquidCrystal.o
 .text._ZN13LiquidCrystalC2Ehhhhhhh
                0x00000000       0x5c build//usr/local/libmaple/libraries/LiquidCrystal/LiquidCrystal.o
 .text._ZN13LiquidCrystalC1Ehhhhhhhhhh
                0x00000000       0x70 build//usr/local/libmaple/libraries/LiquidCrystal/LiquidCrystal.o
 .text._ZN13LiquidCrystalC2Ehhhhhhhhhh
                0x00000000       0x70 build//usr/local/libmaple/libraries/LiquidCrystal/LiquidCrystal.o
 .text._ZN13LiquidCrystalC1Ehhhhhhhhhhh
                0x00000000       0x74 build//usr/local/libmaple/libraries/LiquidCrystal/LiquidCrystal.o
 .text._ZN13LiquidCrystalC2Ehhhhhhhhhhh
                0x00000000       0x74 build//usr/local/libmaple/libraries/LiquidCrystal/LiquidCrystal.o
 .rodata._ZTV13LiquidCrystal
                0x00000000       0x18 build//usr/local/libmaple/libraries/LiquidCrystal/LiquidCrystal.o
 .rodata._ZZN13LiquidCrystal9setCursorEhhE4C.16
                0x00000000       0x10 build//usr/local/libmaple/libraries/LiquidCrystal/LiquidCrystal.o
 .text          0x00000000        0x0 build//usr/local/libmaple/libraries/Wire/Wire.o
 .data          0x00000000        0x0 build//usr/local/libmaple/libraries/Wire/Wire.o
 .bss           0x00000000        0x0 build//usr/local/libmaple/libraries/Wire/Wire.o
 .text._ZN7TwoWireC2Ev
                0x00000000       0x20 build//usr/local/libmaple/libraries/Wire/Wire.o
 .text._ZN7TwoWire17beginTransmissionEh
                0x00000000       0x18 build//usr/local/libmaple/libraries/Wire/Wire.o
 .text._ZN7TwoWire17beginTransmissionEi
                0x00000000        0x6 build//usr/local/libmaple/libraries/Wire/Wire.o
 .text._ZN7TwoWire4sendEh
                0x00000000       0x1e build//usr/local/libmaple/libraries/Wire/Wire.o
 .text._ZN7TwoWire4sendEPhi
                0x00000000       0x1e build//usr/local/libmaple/libraries/Wire/Wire.o
 .text._ZN7TwoWire4sendEi
                0x00000000        0x6 build//usr/local/libmaple/libraries/Wire/Wire.o
 .text._ZN7TwoWire4sendEPii
                0x00000000        0x6 build//usr/local/libmaple/libraries/Wire/Wire.o
 .text._ZN7TwoWire4sendEPc
                0x00000000       0x1a build//usr/local/libmaple/libraries/Wire/Wire.o
 .text._ZN7TwoWire9availableEv
                0x00000000        0xe build//usr/local/libmaple/libraries/Wire/Wire.o
 .text._ZN7TwoWire7receiveEv
                0x00000000       0x1c build//usr/local/libmaple/libraries/Wire/Wire.o
 .text._ZN7TwoWire5beginEhh
                0x00000000       0x32 build//usr/local/libmaple/libraries/Wire/Wire.o
 .text._ZN7TwoWire5beginEv
                0x00000000        0x8 build//usr/local/libmaple/libraries/Wire/Wire.o
 .text._Z13i2c_shift_out4Porth
                0x00000000       0x56 build//usr/local/libmaple/libraries/Wire/Wire.o
 .text._Z13i2c_send_nack4Port
                0x00000000       0x36 build//usr/local/libmaple/libraries/Wire/Wire.o
 .text._Z12i2c_send_ack4Port
                0x00000000       0x48 build//usr/local/libmaple/libraries/Wire/Wire.o
 .text._Z8i2c_stop4Port
                0x00000000       0x34 build//usr/local/libmaple/libraries/Wire/Wire.o
 .text._Z9i2c_start4Port
                0x00000000       0x36 build//usr/local/libmaple/libraries/Wire/Wire.o
 .text._Z12i2c_shift_in4Port
                0x00000000       0x56 build//usr/local/libmaple/libraries/Wire/Wire.o
 .text._Z11i2c_get_ack4Port
                0x00000000       0x80 build//usr/local/libmaple/libraries/Wire/Wire.o
 .text._ZN7TwoWire11readOneByteEhPh
                0x00000000       0x7c build//usr/local/libmaple/libraries/Wire/Wire.o
 .text._ZN7TwoWire11requestFromEhi
                0x00000000       0x3a build//usr/local/libmaple/libraries/Wire/Wire.o
 .text._ZN7TwoWire11requestFromEii
                0x00000000        0x8 build//usr/local/libmaple/libraries/Wire/Wire.o
 .text._ZN7TwoWire12writeOneByteEh
                0x00000000       0x2e build//usr/local/libmaple/libraries/Wire/Wire.o
 .text._ZN7TwoWire15endTransmissionEv
                0x00000000       0x88 build//usr/local/libmaple/libraries/Wire/Wire.o
 .text          0x00000000        0x0 build//usr/local/libmaple/libraries/FreeRTOS/utility/croutine.o
 .data          0x00000000        0x0 build//usr/local/libmaple/libraries/FreeRTOS/utility/croutine.o
 .bss           0x00000000        0x0 build//usr/local/libmaple/libraries/FreeRTOS/utility/croutine.o
 .text.xCoRoutineRemoveFromEventList
                0x00000000       0x34 build//usr/local/libmaple/libraries/FreeRTOS/utility/croutine.o
 .text.vCoRoutineSchedule
                0x00000000      0x148 build//usr/local/libmaple/libraries/FreeRTOS/utility/croutine.o
 .text.vCoRoutineAddToDelayedList
                0x00000000       0x54 build//usr/local/libmaple/libraries/FreeRTOS/utility/croutine.o
 .text.xCoRoutineCreate
                0x00000000       0xc4 build//usr/local/libmaple/libraries/FreeRTOS/utility/croutine.o
 .bss.xDelayedCoRoutineList1
                0x00000000       0x14 build//usr/local/libmaple/libraries/FreeRTOS/utility/croutine.o
 .bss.xPassedTicks
                0x00000000        0x4 build//usr/local/libmaple/libraries/FreeRTOS/utility/croutine.o
 .bss.xPendingReadyCoRoutineList
                0x00000000       0x14 build//usr/local/libmaple/libraries/FreeRTOS/utility/croutine.o
 .bss.pxCurrentCoRoutine
                0x00000000        0x4 build//usr/local/libmaple/libraries/FreeRTOS/utility/croutine.o
 .bss.xDelayedCoRoutineList2
                0x00000000       0x14 build//usr/local/libmaple/libraries/FreeRTOS/utility/croutine.o
 .bss.xCoRoutineTickCount
                0x00000000        0x4 build//usr/local/libmaple/libraries/FreeRTOS/utility/croutine.o
 .bss.xLastTickCount
                0x00000000        0x4 build//usr/local/libmaple/libraries/FreeRTOS/utility/croutine.o
 .bss.pxDelayedCoRoutineList
                0x00000000        0x4 build//usr/local/libmaple/libraries/FreeRTOS/utility/croutine.o
 .bss.pxReadyCoRoutineLists
                0x00000000       0x28 build//usr/local/libmaple/libraries/FreeRTOS/utility/croutine.o
 .bss.uxTopCoRoutineReadyPriority
                0x00000000        0x4 build//usr/local/libmaple/libraries/FreeRTOS/utility/croutine.o
 .bss.pxOverflowDelayedCoRoutineList
                0x00000000        0x4 build//usr/local/libmaple/libraries/FreeRTOS/utility/croutine.o
 .text          0x00000000        0x0 build//usr/local/libmaple/libraries/FreeRTOS/utility/heap_2.o
 .data          0x00000000        0x0 build//usr/local/libmaple/libraries/FreeRTOS/utility/heap_2.o
 .bss           0x00000000        0x0 build//usr/local/libmaple/libraries/FreeRTOS/utility/heap_2.o
 .text.xPortGetFreeHeapSize
                0x00000000        0xc build//usr/local/libmaple/libraries/FreeRTOS/utility/heap_2.o
 .text.vPortInitialiseBlocks
                0x00000000        0x2 build//usr/local/libmaple/libraries/FreeRTOS/utility/heap_2.o
 .text.vPortFree
                0x00000000       0x40 build//usr/local/libmaple/libraries/FreeRTOS/utility/heap_2.o
 .text.pvPortMalloc
                0x00000000       0xb0 build//usr/local/libmaple/libraries/FreeRTOS/utility/heap_2.o
 .bss.xHeap     0x00000000     0x2000 build//usr/local/libmaple/libraries/FreeRTOS/utility/heap_2.o
 .bss.xStart    0x00000000        0x8 build//usr/local/libmaple/libraries/FreeRTOS/utility/heap_2.o
 .data.xFreeBytesRemaining
                0x00000000        0x4 build//usr/local/libmaple/libraries/FreeRTOS/utility/heap_2.o
 .bss.xEnd      0x00000000        0x8 build//usr/local/libmaple/libraries/FreeRTOS/utility/heap_2.o
 .bss.xHeapHasBeenInitialised.1974
                0x00000000        0x4 build//usr/local/libmaple/libraries/FreeRTOS/utility/heap_2.o
 .text          0x00000000        0x0 build//usr/local/libmaple/libraries/FreeRTOS/utility/list.o
 .data          0x00000000        0x0 build//usr/local/libmaple/libraries/FreeRTOS/utility/list.o
 .bss           0x00000000        0x0 build//usr/local/libmaple/libraries/FreeRTOS/utility/list.o
 .text.vListInitialise
                0x00000000       0x16 build//usr/local/libmaple/libraries/FreeRTOS/utility/list.o
 .text.vListInitialiseItem
                0x00000000        0x6 build//usr/local/libmaple/libraries/FreeRTOS/utility/list.o
 .text.vListInsertEnd
                0x00000000       0x1a build//usr/local/libmaple/libraries/FreeRTOS/utility/list.o
 .text.vListInsert
                0x00000000       0x32 build//usr/local/libmaple/libraries/FreeRTOS/utility/list.o
 .text.vListRemove
                0x00000000       0x20 build//usr/local/libmaple/libraries/FreeRTOS/utility/list.o
 .text          0x00000000        0x0 build//usr/local/libmaple/libraries/FreeRTOS/utility/port.o
 .data          0x00000000        0x0 build//usr/local/libmaple/libraries/FreeRTOS/utility/port.o
 .bss           0x00000000        0x0 build//usr/local/libmaple/libraries/FreeRTOS/utility/port.o
 .text.pxPortInitialiseStack
                0x00000000       0x20 build//usr/local/libmaple/libraries/FreeRTOS/utility/port.o
 .text.vPortStartFirstTask
                0x00000000       0x14 build//usr/local/libmaple/libraries/FreeRTOS/utility/port.o
 .text.vPortEndScheduler
                0x00000000        0x2 build//usr/local/libmaple/libraries/FreeRTOS/utility/port.o
 .text.vPortYieldFromISR
                0x00000000       0x10 build//usr/local/libmaple/libraries/FreeRTOS/utility/port.o
 .text.vPortEnterCritical
                0x00000000       0x18 build//usr/local/libmaple/libraries/FreeRTOS/utility/port.o
 .text.vPortExitCritical
                0x00000000       0x18 build//usr/local/libmaple/libraries/FreeRTOS/utility/port.o
 .text.xPortSysTickHandler
                0x00000000       0x24 build//usr/local/libmaple/libraries/FreeRTOS/utility/port.o
 .text.xPortStartScheduler
                0x00000000       0x34 build//usr/local/libmaple/libraries/FreeRTOS/utility/port.o
 .rodata.ulKernelPriority
                0x00000000        0x4 build//usr/local/libmaple/libraries/FreeRTOS/utility/port.o
 .data.uxCriticalNesting
                0x00000000        0x4 build//usr/local/libmaple/libraries/FreeRTOS/utility/port.o
 .text          0x00000000        0x0 build//usr/local/libmaple/libraries/FreeRTOS/utility/queue.o
 .data          0x00000000        0x0 build//usr/local/libmaple/libraries/FreeRTOS/utility/queue.o
 .bss           0x00000000        0x0 build//usr/local/libmaple/libraries/FreeRTOS/utility/queue.o
 .text.uxQueueMessagesWaitingFromISR
                0x00000000        0x4 build//usr/local/libmaple/libraries/FreeRTOS/utility/queue.o
 .text.xQueueIsQueueEmptyFromISR
                0x00000000        0xc build//usr/local/libmaple/libraries/FreeRTOS/utility/queue.o
 .text.xQueueIsQueueFullFromISR
                0x00000000        0xe build//usr/local/libmaple/libraries/FreeRTOS/utility/queue.o
 .text.vQueueDelete
                0x00000000       0x14 build//usr/local/libmaple/libraries/FreeRTOS/utility/queue.o
 .text.uxQueueMessagesWaiting
                0x00000000       0x12 build//usr/local/libmaple/libraries/FreeRTOS/utility/queue.o
 .text.prvCopyDataFromQueue
                0x00000000       0x28 build//usr/local/libmaple/libraries/FreeRTOS/utility/queue.o
 .text.xQueueReceiveFromISR
                0x00000000       0x4c build//usr/local/libmaple/libraries/FreeRTOS/utility/queue.o
 .text.prvUnlockQueue
                0x00000000       0x68 build//usr/local/libmaple/libraries/FreeRTOS/utility/queue.o
 .text.xQueueGenericReceive
                0x00000000      0x112 build//usr/local/libmaple/libraries/FreeRTOS/utility/queue.o
 .text.xQueueTakeMutexRecursive
                0x00000000       0x32 build//usr/local/libmaple/libraries/FreeRTOS/utility/queue.o
 .text.prvCopyDataToQueue
                0x00000000       0x58 build//usr/local/libmaple/libraries/FreeRTOS/utility/queue.o
 .text.xQueueGenericSendFromISR
                0x00000000       0x50 build//usr/local/libmaple/libraries/FreeRTOS/utility/queue.o
 .text.xQueueGenericSend
                0x00000000       0xec build//usr/local/libmaple/libraries/FreeRTOS/utility/queue.o
 .text.xQueueGiveMutexRecursive
                0x00000000       0x2c build//usr/local/libmaple/libraries/FreeRTOS/utility/queue.o
 .text.xQueueCreateMutex
                0x00000000       0x42 build//usr/local/libmaple/libraries/FreeRTOS/utility/queue.o
 .text.xQueueCreate
                0x00000000       0x70 build//usr/local/libmaple/libraries/FreeRTOS/utility/queue.o
 .text.xQueueCreateCountingSemaphore
                0x00000000       0x14 build//usr/local/libmaple/libraries/FreeRTOS/utility/queue.o
 .text          0x00000000        0x0 build//usr/local/libmaple/libraries/FreeRTOS/utility/timers.o
 .data          0x00000000        0x0 build//usr/local/libmaple/libraries/FreeRTOS/utility/timers.o
 .bss           0x00000000        0x0 build//usr/local/libmaple/libraries/FreeRTOS/utility/timers.o
 .text          0x00000000        0x0 build//usr/local/libmaple/libraries/FreeRTOS/utility/tasks.o
 .data          0x00000000        0x0 build//usr/local/libmaple/libraries/FreeRTOS/utility/tasks.o
 .bss           0x00000000        0x0 build//usr/local/libmaple/libraries/FreeRTOS/utility/tasks.o
 .text.xTaskIsTaskSuspended
                0x00000000       0x28 build//usr/local/libmaple/libraries/FreeRTOS/utility/tasks.o
 .text.vTaskSuspendAll
                0x00000000       0x10 build//usr/local/libmaple/libraries/FreeRTOS/utility/tasks.o
 .text.xTaskGetTickCountFromISR
                0x00000000       0x1c build//usr/local/libmaple/libraries/FreeRTOS/utility/tasks.o
 .text.uxTaskGetNumberOfTasks
                0x00000000        0xc build//usr/local/libmaple/libraries/FreeRTOS/utility/tasks.o
 .text.vTaskSetTimeOutState
                0x00000000       0x18 build//usr/local/libmaple/libraries/FreeRTOS/utility/tasks.o
 .text.vTaskMissedYield
                0x00000000        0xc build//usr/local/libmaple/libraries/FreeRTOS/utility/tasks.o
 .text.xTaskGetCurrentTaskHandle
                0x00000000        0xc build//usr/local/libmaple/libraries/FreeRTOS/utility/tasks.o
 .text.vTaskPriorityDisinherit
                0x00000000       0x48 build//usr/local/libmaple/libraries/FreeRTOS/utility/tasks.o
 .text.vTaskPriorityInherit
                0x00000000       0x68 build//usr/local/libmaple/libraries/FreeRTOS/utility/tasks.o
 .text.xTaskRemoveFromEventList
                0x00000000       0x64 build//usr/local/libmaple/libraries/FreeRTOS/utility/tasks.o
 .text.vTaskIncrementTick
                0x00000000       0xd4 build//usr/local/libmaple/libraries/FreeRTOS/utility/tasks.o
 .text.xTaskResumeFromISR
                0x00000000       0x6c build//usr/local/libmaple/libraries/FreeRTOS/utility/tasks.o
 .text.xTaskCheckForTimeOut
                0x00000000       0x58 build//usr/local/libmaple/libraries/FreeRTOS/utility/tasks.o
 .text.ulTaskEndTrace
                0x00000000       0x28 build//usr/local/libmaple/libraries/FreeRTOS/utility/tasks.o
 .text.vTaskStartTrace
                0x00000000       0x3c build//usr/local/libmaple/libraries/FreeRTOS/utility/tasks.o
 .text.xTaskGetTickCount
                0x00000000       0x18 build//usr/local/libmaple/libraries/FreeRTOS/utility/tasks.o
 .text.uxTaskPriorityGet
                0x00000000       0x1c build//usr/local/libmaple/libraries/FreeRTOS/utility/tasks.o
 .text.prvAddCurrentTaskToDelayedList
                0x00000000       0x50 build//usr/local/libmaple/libraries/FreeRTOS/utility/tasks.o
 .text.vTaskPlaceOnEventList
                0x00000000       0x44 build//usr/local/libmaple/libraries/FreeRTOS/utility/tasks.o
 .text.prvListTaskWithinSingleList
                0x00000000       0x7c build//usr/local/libmaple/libraries/FreeRTOS/utility/tasks.o
 .text.xTaskResumeAll
                0x00000000       0xc0 build//usr/local/libmaple/libraries/FreeRTOS/utility/tasks.o
 .text.vTaskList
                0x00000000       0x9c build//usr/local/libmaple/libraries/FreeRTOS/utility/tasks.o
 .text.vTaskResume
                0x00000000       0x68 build//usr/local/libmaple/libraries/FreeRTOS/utility/tasks.o
 .text.vTaskSuspend
                0x00000000       0x7c build//usr/local/libmaple/libraries/FreeRTOS/utility/tasks.o
 .text.vTaskPrioritySet
                0x00000000       0x98 build//usr/local/libmaple/libraries/FreeRTOS/utility/tasks.o
 .text.vTaskDelay
                0x00000000       0x38 build//usr/local/libmaple/libraries/FreeRTOS/utility/tasks.o
 .text.vTaskDelayUntil
                0x00000000       0x5c build//usr/local/libmaple/libraries/FreeRTOS/utility/tasks.o
 .text.vTaskDelete
                0x00000000       0x74 build//usr/local/libmaple/libraries/FreeRTOS/utility/tasks.o
 .text.vTaskEndScheduler
                0x00000000       0x18 build//usr/local/libmaple/libraries/FreeRTOS/utility/tasks.o
 .text.prvIdleTask
                0x00000000       0x60 build//usr/local/libmaple/libraries/FreeRTOS/utility/tasks.o
 .text.xTaskGenericCreate
                0x00000000      0x1b0 build//usr/local/libmaple/libraries/FreeRTOS/utility/tasks.o
 .text.vTaskStartScheduler
                0x00000000       0x4c build//usr/local/libmaple/libraries/FreeRTOS/utility/tasks.o
 .bss.xPendingReadyList
                0x00000000       0x14 build//usr/local/libmaple/libraries/FreeRTOS/utility/tasks.o
 .bss.uxTasksDeleted
                0x00000000        0x4 build//usr/local/libmaple/libraries/FreeRTOS/utility/tasks.o
 .bss.pxOverflowDelayedTaskList
                0x00000000        0x4 build//usr/local/libmaple/libraries/FreeRTOS/utility/tasks.o
 .bss.xTasksWaitingTermination
                0x00000000       0x14 build//usr/local/libmaple/libraries/FreeRTOS/utility/tasks.o
 .bss.pxDelayedTaskList
                0x00000000        0x4 build//usr/local/libmaple/libraries/FreeRTOS/utility/tasks.o
 .data.xNextTaskUnblockTime
                0x00000000        0x4 build//usr/local/libmaple/libraries/FreeRTOS/utility/tasks.o
 .bss.xSchedulerRunning
                0x00000000        0x4 build//usr/local/libmaple/libraries/FreeRTOS/utility/tasks.o
 .rodata.str1.1
                0x00000000       0x1a build//usr/local/libmaple/libraries/FreeRTOS/utility/tasks.o
 .bss.pcStatusString
                0x00000000       0x34 build//usr/local/libmaple/libraries/FreeRTOS/utility/tasks.o
 .bss.xSuspendedTaskList
                0x00000000       0x14 build//usr/local/libmaple/libraries/FreeRTOS/utility/tasks.o
 .bss.uxCurrentNumberOfTasks
                0x00000000        0x4 build//usr/local/libmaple/libraries/FreeRTOS/utility/tasks.o
 .bss.xDelayedTaskList1
                0x00000000       0x14 build//usr/local/libmaple/libraries/FreeRTOS/utility/tasks.o
 .bss.xDelayedTaskList2
                0x00000000       0x14 build//usr/local/libmaple/libraries/FreeRTOS/utility/tasks.o
 .bss.uxTaskNumber
                0x00000000        0x4 build//usr/local/libmaple/libraries/FreeRTOS/utility/tasks.o
 .bss.uxMissedTicks
                0x00000000        0x4 build//usr/local/libmaple/libraries/FreeRTOS/utility/tasks.o
 .bss.pcTraceBufferStart
                0x00000000        0x4 build//usr/local/libmaple/libraries/FreeRTOS/utility/tasks.o
 .bss.xNumOfOverflows
                0x00000000        0x4 build//usr/local/libmaple/libraries/FreeRTOS/utility/tasks.o
 .bss.uxTopUsedPriority
                0x00000000        0x4 build//usr/local/libmaple/libraries/FreeRTOS/utility/tasks.o
 .text          0x00000000        0x0 build//usr/local/libmaple/libraries/FreeRTOS/MapleFreeRTOS.o
 .data          0x00000000        0x0 build//usr/local/libmaple/libraries/FreeRTOS/MapleFreeRTOS.o
 .bss           0x00000000        0x0 build//usr/local/libmaple/libraries/FreeRTOS/MapleFreeRTOS.o
 .text          0x00000000        0x0 build/main.o
 .data          0x00000000        0x0 build/main.o
 .bss           0x00000000        0x0 build/main.o
 .data          0x00000000        0x0 /usr/local/libmaple/arm/bin/../lib/gcc/arm-none-eabi/4.4.1/thumb2/libgcc.a(_arm_addsubdf3.o)
 .bss           0x00000000        0x0 /usr/local/libmaple/arm/bin/../lib/gcc/arm-none-eabi/4.4.1/thumb2/libgcc.a(_arm_addsubdf3.o)
 .data          0x00000000        0x0 /usr/local/libmaple/arm/bin/../lib/gcc/arm-none-eabi/4.4.1/thumb2/libgcc.a(_arm_muldivdf3.o)
 .bss           0x00000000        0x0 /usr/local/libmaple/arm/bin/../lib/gcc/arm-none-eabi/4.4.1/thumb2/libgcc.a(_arm_muldivdf3.o)
 .data          0x00000000        0x0 /usr/local/libmaple/arm/bin/../lib/gcc/arm-none-eabi/4.4.1/thumb2/libgcc.a(_arm_cmpdf2.o)
 .bss           0x00000000        0x0 /usr/local/libmaple/arm/bin/../lib/gcc/arm-none-eabi/4.4.1/thumb2/libgcc.a(_arm_cmpdf2.o)
 .data          0x00000000        0x0 /usr/local/libmaple/arm/bin/../lib/gcc/arm-none-eabi/4.4.1/thumb2/libgcc.a(_arm_fixdfsi.o)
 .bss           0x00000000        0x0 /usr/local/libmaple/arm/bin/../lib/gcc/arm-none-eabi/4.4.1/thumb2/libgcc.a(_arm_fixdfsi.o)
 .data          0x00000000        0x0 /usr/local/libmaple/arm/bin/../lib/gcc/arm-none-eabi/4.4.1/thumb2/libgcc.a(_arm_addsubsf3.o)
 .bss           0x00000000        0x0 /usr/local/libmaple/arm/bin/../lib/gcc/arm-none-eabi/4.4.1/thumb2/libgcc.a(_arm_addsubsf3.o)
 .data          0x00000000        0x0 /usr/local/libmaple/arm/bin/../lib/gcc/arm-none-eabi/4.4.1/thumb2/libgcc.a(_arm_muldivsf3.o)
 .bss           0x00000000        0x0 /usr/local/libmaple/arm/bin/../lib/gcc/arm-none-eabi/4.4.1/thumb2/libgcc.a(_arm_muldivsf3.o)
 .data          0x00000000        0x0 /usr/local/libmaple/arm/bin/../lib/gcc/arm-none-eabi/4.4.1/thumb2/libgcc.a(_aeabi_uldivmod.o)
 .bss           0x00000000        0x0 /usr/local/libmaple/arm/bin/../lib/gcc/arm-none-eabi/4.4.1/thumb2/libgcc.a(_aeabi_uldivmod.o)
 .data          0x00000000        0x0 /usr/local/libmaple/arm/bin/../lib/gcc/arm-none-eabi/4.4.1/thumb2/libgcc.a(_fixdfdi.o)
 .bss           0x00000000        0x0 /usr/local/libmaple/arm/bin/../lib/gcc/arm-none-eabi/4.4.1/thumb2/libgcc.a(_fixdfdi.o)
 .data          0x00000000        0x0 /usr/local/libmaple/arm/bin/../lib/gcc/arm-none-eabi/4.4.1/thumb2/libgcc.a(_fixunsdfdi.o)
 .bss           0x00000000        0x0 /usr/local/libmaple/arm/bin/../lib/gcc/arm-none-eabi/4.4.1/thumb2/libgcc.a(_fixunsdfdi.o)
 .data          0x00000000        0x0 /usr/local/libmaple/arm/bin/../lib/gcc/arm-none-eabi/4.4.1/thumb2/libgcc.a(bpabi.o)
 .bss           0x00000000        0x0 /usr/local/libmaple/arm/bin/../lib/gcc/arm-none-eabi/4.4.1/thumb2/libgcc.a(bpabi.o)
 .data          0x00000000        0x0 /usr/local/libmaple/arm/bin/../lib/gcc/arm-none-eabi/4.4.1/thumb2/libgcc.a(_dvmd_tls.o)
 .bss           0x00000000        0x0 /usr/local/libmaple/arm/bin/../lib/gcc/arm-none-eabi/4.4.1/thumb2/libgcc.a(_dvmd_tls.o)
 .data          0x00000000        0x0 /usr/local/libmaple/arm/bin/../lib/gcc/arm-none-eabi/4.4.1/thumb2/libgcc.a(_arm_fixunsdfsi.o)
 .bss           0x00000000        0x0 /usr/local/libmaple/arm/bin/../lib/gcc/arm-none-eabi/4.4.1/thumb2/libgcc.a(_arm_fixunsdfsi.o)
 .data          0x00000000        0x0 /usr/local/libmaple/arm/bin/../lib/gcc/arm-none-eabi/4.4.1/thumb2/libgcc.a(_divdi3.o)
 .bss           0x00000000        0x0 /usr/local/libmaple/arm/bin/../lib/gcc/arm-none-eabi/4.4.1/thumb2/libgcc.a(_divdi3.o)
 .ARM.extab     0x00000000        0x0 /usr/local/libmaple/arm/bin/../lib/gcc/arm-none-eabi/4.4.1/thumb2/libgcc.a(_divdi3.o)
 .data          0x00000000        0x0 /usr/local/libmaple/arm/bin/../lib/gcc/arm-none-eabi/4.4.1/thumb2/libgcc.a(_udivdi3.o)
 .bss           0x00000000        0x0 /usr/local/libmaple/arm/bin/../lib/gcc/arm-none-eabi/4.4.1/thumb2/libgcc.a(_udivdi3.o)
 .ARM.extab     0x00000000        0x0 /usr/local/libmaple/arm/bin/../lib/gcc/arm-none-eabi/4.4.1/thumb2/libgcc.a(_udivdi3.o)
 .data          0x00000000        0x0 /usr/local/libmaple/arm/bin/../lib/gcc/arm-none-eabi/4.4.1/thumb2/libgcc.a(_udivsi3.o)
 .bss           0x00000000        0x0 /usr/local/libmaple/arm/bin/../lib/gcc/arm-none-eabi/4.4.1/thumb2/libgcc.a(_udivsi3.o)
 .text          0x00000000        0x0 /usr/local/libmaple/arm/bin/../lib/gcc/arm-none-eabi/4.4.1/../../../../arm-none-eabi/lib/thumb2/libc.a(lib_a-memcmp.o)
 .data          0x00000000        0x0 /usr/local/libmaple/arm/bin/../lib/gcc/arm-none-eabi/4.4.1/../../../../arm-none-eabi/lib/thumb2/libc.a(lib_a-memcmp.o)
 .bss           0x00000000        0x0 /usr/local/libmaple/arm/bin/../lib/gcc/arm-none-eabi/4.4.1/../../../../arm-none-eabi/lib/thumb2/libc.a(lib_a-memcmp.o)
 .text          0x00000000        0x0 /usr/local/libmaple/arm/bin/../lib/gcc/arm-none-eabi/4.4.1/../../../../arm-none-eabi/lib/thumb2/libc.a(lib_a-memcpy.o)
 .data          0x00000000        0x0 /usr/local/libmaple/arm/bin/../lib/gcc/arm-none-eabi/4.4.1/../../../../arm-none-eabi/lib/thumb2/libc.a(lib_a-memcpy.o)
 .bss           0x00000000        0x0 /usr/local/libmaple/arm/bin/../lib/gcc/arm-none-eabi/4.4.1/../../../../arm-none-eabi/lib/thumb2/libc.a(lib_a-memcpy.o)
 .text.memcpy   0x00000000       0x1a /usr/local/libmaple/arm/bin/../lib/gcc/arm-none-eabi/4.4.1/../../../../arm-none-eabi/lib/thumb2/libc.a(lib_a-memcpy.o)
 .text          0x00000000        0x0 /usr/local/libmaple/arm/bin/../lib/gcc/arm-none-eabi/4.4.1/../../../../arm-none-eabi/lib/thumb2/libc.a(lib_a-memset.o)
 .data          0x00000000        0x0 /usr/local/libmaple/arm/bin/../lib/gcc/arm-none-eabi/4.4.1/../../../../arm-none-eabi/lib/thumb2/libc.a(lib_a-memset.o)
 .bss           0x00000000        0x0 /usr/local/libmaple/arm/bin/../lib/gcc/arm-none-eabi/4.4.1/../../../../arm-none-eabi/lib/thumb2/libc.a(lib_a-memset.o)
 .text.memset   0x00000000       0x12 /usr/local/libmaple/arm/bin/../lib/gcc/arm-none-eabi/4.4.1/../../../../arm-none-eabi/lib/thumb2/libc.a(lib_a-memset.o)
 .text          0x00000000        0x0 /usr/local/libmaple/arm/bin/../lib/gcc/arm-none-eabi/4.4.1/../../../../arm-none-eabi/lib/thumb2/libc.a(lib_a-rand.o)
 .data          0x00000000        0x0 /usr/local/libmaple/arm/bin/../lib/gcc/arm-none-eabi/4.4.1/../../../../arm-none-eabi/lib/thumb2/libc.a(lib_a-rand.o)
 .bss           0x00000000        0x0 /usr/local/libmaple/arm/bin/../lib/gcc/arm-none-eabi/4.4.1/../../../../arm-none-eabi/lib/thumb2/libc.a(lib_a-rand.o)
 .text.rand     0x00000000       0x84 /usr/local/libmaple/arm/bin/../lib/gcc/arm-none-eabi/4.4.1/../../../../arm-none-eabi/lib/thumb2/libc.a(lib_a-rand.o)
 .text.srand    0x00000000       0x5c /usr/local/libmaple/arm/bin/../lib/gcc/arm-none-eabi/4.4.1/../../../../arm-none-eabi/lib/thumb2/libc.a(lib_a-rand.o)
 .text          0x00000000        0x0 /usr/local/libmaple/arm/bin/../lib/gcc/arm-none-eabi/4.4.1/../../../../arm-none-eabi/lib/thumb2/libc.a(lib_a-sprintf.o)
 .data          0x00000000        0x0 /usr/local/libmaple/arm/bin/../lib/gcc/arm-none-eabi/4.4.1/../../../../arm-none-eabi/lib/thumb2/libc.a(lib_a-sprintf.o)
 .bss           0x00000000        0x0 /usr/local/libmaple/arm/bin/../lib/gcc/arm-none-eabi/4.4.1/../../../../arm-none-eabi/lib/thumb2/libc.a(lib_a-sprintf.o)
 .text.sprintf  0x00000000       0x48 /usr/local/libmaple/arm/bin/../lib/gcc/arm-none-eabi/4.4.1/../../../../arm-none-eabi/lib/thumb2/libc.a(lib_a-sprintf.o)
 .text._sprintf_r
                0x00000000       0x40 /usr/local/libmaple/arm/bin/../lib/gcc/arm-none-eabi/4.4.1/../../../../arm-none-eabi/lib/thumb2/libc.a(lib_a-sprintf.o)
 .text          0x00000000        0x0 /usr/local/libmaple/arm/bin/../lib/gcc/arm-none-eabi/4.4.1/../../../../arm-none-eabi/lib/thumb2/libc.a(lib_a-strcat.o)
 .data          0x00000000        0x0 /usr/local/libmaple/arm/bin/../lib/gcc/arm-none-eabi/4.4.1/../../../../arm-none-eabi/lib/thumb2/libc.a(lib_a-strcat.o)
 .bss           0x00000000        0x0 /usr/local/libmaple/arm/bin/../lib/gcc/arm-none-eabi/4.4.1/../../../../arm-none-eabi/lib/thumb2/libc.a(lib_a-strcat.o)
 .text.strcat   0x00000000       0x1a /usr/local/libmaple/arm/bin/../lib/gcc/arm-none-eabi/4.4.1/../../../../arm-none-eabi/lib/thumb2/libc.a(lib_a-strcat.o)
 .text          0x00000000        0x0 /usr/local/libmaple/arm/bin/../lib/gcc/arm-none-eabi/4.4.1/../../../../arm-none-eabi/lib/thumb2/libc.a(lib_a-strlen.o)
 .data          0x00000000        0x0 /usr/local/libmaple/arm/bin/../lib/gcc/arm-none-eabi/4.4.1/../../../../arm-none-eabi/lib/thumb2/libc.a(lib_a-strlen.o)
 .bss           0x00000000        0x0 /usr/local/libmaple/arm/bin/../lib/gcc/arm-none-eabi/4.4.1/../../../../arm-none-eabi/lib/thumb2/libc.a(lib_a-strlen.o)
 .text          0x00000000        0x0 /usr/local/libmaple/arm/bin/../lib/gcc/arm-none-eabi/4.4.1/../../../../arm-none-eabi/lib/thumb2/libc.a(lib_a-strncpy.o)
 .data          0x00000000        0x0 /usr/local/libmaple/arm/bin/../lib/gcc/arm-none-eabi/4.4.1/../../../../arm-none-eabi/lib/thumb2/libc.a(lib_a-strncpy.o)
 .bss           0x00000000        0x0 /usr/local/libmaple/arm/bin/../lib/gcc/arm-none-eabi/4.4.1/../../../../arm-none-eabi/lib/thumb2/libc.a(lib_a-strncpy.o)
 .text.strncpy  0x00000000       0x30 /usr/local/libmaple/arm/bin/../lib/gcc/arm-none-eabi/4.4.1/../../../../arm-none-eabi/lib/thumb2/libc.a(lib_a-strncpy.o)
 .text          0x00000000        0x0 /usr/local/libmaple/arm/bin/../lib/gcc/arm-none-eabi/4.4.1/../../../../arm-none-eabi/lib/thumb2/libc.a(lib_a-svfprintf.o)
 .data          0x00000000        0x0 /usr/local/libmaple/arm/bin/../lib/gcc/arm-none-eabi/4.4.1/../../../../arm-none-eabi/lib/thumb2/libc.a(lib_a-svfprintf.o)
 .bss           0x00000000        0x0 /usr/local/libmaple/arm/bin/../lib/gcc/arm-none-eabi/4.4.1/../../../../arm-none-eabi/lib/thumb2/libc.a(lib_a-svfprintf.o)
 .text.__sprint_r
                0x00000000       0xf4 /usr/local/libmaple/arm/bin/../lib/gcc/arm-none-eabi/4.4.1/../../../../arm-none-eabi/lib/thumb2/libc.a(lib_a-svfprintf.o)
 .text._svfprintf_r
                0x00000000      0xf00 /usr/local/libmaple/arm/bin/../lib/gcc/arm-none-eabi/4.4.1/../../../../arm-none-eabi/lib/thumb2/libc.a(lib_a-svfprintf.o)
 .rodata.zeroes.3596
                0x00000000       0x10 /usr/local/libmaple/arm/bin/../lib/gcc/arm-none-eabi/4.4.1/../../../../arm-none-eabi/lib/thumb2/libc.a(lib_a-svfprintf.o)
 .rodata.str1.1
                0x00000000       0x34 /usr/local/libmaple/arm/bin/../lib/gcc/arm-none-eabi/4.4.1/../../../../arm-none-eabi/lib/thumb2/libc.a(lib_a-svfprintf.o)
 .rodata.blanks.3595
                0x00000000       0x10 /usr/local/libmaple/arm/bin/../lib/gcc/arm-none-eabi/4.4.1/../../../../arm-none-eabi/lib/thumb2/libc.a(lib_a-svfprintf.o)
 .text          0x00000000        0x0 /usr/local/libmaple/arm/bin/../lib/gcc/arm-none-eabi/4.4.1/../../../../arm-none-eabi/lib/thumb2/libc.a(lib_a-dtoa.o)
 .data          0x00000000        0x0 /usr/local/libmaple/arm/bin/../lib/gcc/arm-none-eabi/4.4.1/../../../../arm-none-eabi/lib/thumb2/libc.a(lib_a-dtoa.o)
 .bss           0x00000000        0x0 /usr/local/libmaple/arm/bin/../lib/gcc/arm-none-eabi/4.4.1/../../../../arm-none-eabi/lib/thumb2/libc.a(lib_a-dtoa.o)
 .text.quorem   0x00000000      0x116 /usr/local/libmaple/arm/bin/../lib/gcc/arm-none-eabi/4.4.1/../../../../arm-none-eabi/lib/thumb2/libc.a(lib_a-dtoa.o)
 .text._dtoa_r  0x00000000      0xb88 /usr/local/libmaple/arm/bin/../lib/gcc/arm-none-eabi/4.4.1/../../../../arm-none-eabi/lib/thumb2/libc.a(lib_a-dtoa.o)
 .rodata.str1.1
                0x00000000        0xf /usr/local/libmaple/arm/bin/../lib/gcc/arm-none-eabi/4.4.1/../../../../arm-none-eabi/lib/thumb2/libc.a(lib_a-dtoa.o)
 .text          0x00000000        0x0 /usr/local/libmaple/arm/bin/../lib/gcc/arm-none-eabi/4.4.1/../../../../arm-none-eabi/lib/thumb2/libc.a(lib_a-freer.o)
 .data          0x00000000        0x0 /usr/local/libmaple/arm/bin/../lib/gcc/arm-none-eabi/4.4.1/../../../../arm-none-eabi/lib/thumb2/libc.a(lib_a-freer.o)
 .bss           0x00000000        0x0 /usr/local/libmaple/arm/bin/../lib/gcc/arm-none-eabi/4.4.1/../../../../arm-none-eabi/lib/thumb2/libc.a(lib_a-freer.o)
 .text._malloc_trim_r
                0x00000000       0x98 /usr/local/libmaple/arm/bin/../lib/gcc/arm-none-eabi/4.4.1/../../../../arm-none-eabi/lib/thumb2/libc.a(lib_a-freer.o)
 .text._free_r  0x00000000      0x19c /usr/local/libmaple/arm/bin/../lib/gcc/arm-none-eabi/4.4.1/../../../../arm-none-eabi/lib/thumb2/libc.a(lib_a-freer.o)
 .text          0x00000000        0x0 /usr/local/libmaple/arm/bin/../lib/gcc/arm-none-eabi/4.4.1/../../../../arm-none-eabi/lib/thumb2/libc.a(lib_a-impure.o)
 .data          0x00000000        0x0 /usr/local/libmaple/arm/bin/../lib/gcc/arm-none-eabi/4.4.1/../../../../arm-none-eabi/lib/thumb2/libc.a(lib_a-impure.o)
 .bss           0x00000000        0x0 /usr/local/libmaple/arm/bin/../lib/gcc/arm-none-eabi/4.4.1/../../../../arm-none-eabi/lib/thumb2/libc.a(lib_a-impure.o)
 .data.impure_data
                0x00000000       0xf0 /usr/local/libmaple/arm/bin/../lib/gcc/arm-none-eabi/4.4.1/../../../../arm-none-eabi/lib/thumb2/libc.a(lib_a-impure.o)
 .data._impure_ptr
                0x00000000        0x4 /usr/local/libmaple/arm/bin/../lib/gcc/arm-none-eabi/4.4.1/../../../../arm-none-eabi/lib/thumb2/libc.a(lib_a-impure.o)
 .rodata.str1.1
                0x00000000        0x2 /usr/local/libmaple/arm/bin/../lib/gcc/arm-none-eabi/4.4.1/../../../../arm-none-eabi/lib/thumb2/libc.a(lib_a-impure.o)
 .rodata._global_impure_ptr
                0x00000000        0x4 /usr/local/libmaple/arm/bin/../lib/gcc/arm-none-eabi/4.4.1/../../../../arm-none-eabi/lib/thumb2/libc.a(lib_a-impure.o)
 .text          0x00000000        0x0 /usr/local/libmaple/arm/bin/../lib/gcc/arm-none-eabi/4.4.1/../../../../arm-none-eabi/lib/thumb2/libc.a(lib_a-locale.o)
 .data          0x00000000        0x0 /usr/local/libmaple/arm/bin/../lib/gcc/arm-none-eabi/4.4.1/../../../../arm-none-eabi/lib/thumb2/libc.a(lib_a-locale.o)
 .bss           0x00000000        0x0 /usr/local/libmaple/arm/bin/../lib/gcc/arm-none-eabi/4.4.1/../../../../arm-none-eabi/lib/thumb2/libc.a(lib_a-locale.o)
 .text.__locale_charset
                0x00000000        0xc /usr/local/libmaple/arm/bin/../lib/gcc/arm-none-eabi/4.4.1/../../../../arm-none-eabi/lib/thumb2/libc.a(lib_a-locale.o)
 .text._localeconv_r
                0x00000000        0x8 /usr/local/libmaple/arm/bin/../lib/gcc/arm-none-eabi/4.4.1/../../../../arm-none-eabi/lib/thumb2/libc.a(lib_a-locale.o)
 .text.localeconv
                0x00000000        0x8 /usr/local/libmaple/arm/bin/../lib/gcc/arm-none-eabi/4.4.1/../../../../arm-none-eabi/lib/thumb2/libc.a(lib_a-locale.o)
 .text._setlocale_r
                0x00000000       0x38 /usr/local/libmaple/arm/bin/../lib/gcc/arm-none-eabi/4.4.1/../../../../arm-none-eabi/lib/thumb2/libc.a(lib_a-locale.o)
 .text.setlocale
                0x00000000       0x14 /usr/local/libmaple/arm/bin/../lib/gcc/arm-none-eabi/4.4.1/../../../../arm-none-eabi/lib/thumb2/libc.a(lib_a-locale.o)
 .rodata.charset
                0x00000000        0x4 /usr/local/libmaple/arm/bin/../lib/gcc/arm-none-eabi/4.4.1/../../../../arm-none-eabi/lib/thumb2/libc.a(lib_a-locale.o)
 .bss.__nlocale_changed
                0x00000000        0x4 /usr/local/libmaple/arm/bin/../lib/gcc/arm-none-eabi/4.4.1/../../../../arm-none-eabi/lib/thumb2/libc.a(lib_a-locale.o)
 .bss.__mlocale_changed
                0x00000000        0x4 /usr/local/libmaple/arm/bin/../lib/gcc/arm-none-eabi/4.4.1/../../../../arm-none-eabi/lib/thumb2/libc.a(lib_a-locale.o)
 .rodata.lconv  0x00000000       0x30 /usr/local/libmaple/arm/bin/../lib/gcc/arm-none-eabi/4.4.1/../../../../arm-none-eabi/lib/thumb2/libc.a(lib_a-locale.o)
 .bss._PathLocale
                0x00000000        0x4 /usr/local/libmaple/arm/bin/../lib/gcc/arm-none-eabi/4.4.1/../../../../arm-none-eabi/lib/thumb2/libc.a(lib_a-locale.o)
 .rodata.str1.1
                0x00000000       0x10 /usr/local/libmaple/arm/bin/../lib/gcc/arm-none-eabi/4.4.1/../../../../arm-none-eabi/lib/thumb2/libc.a(lib_a-locale.o)
 .data.__lc_ctype
                0x00000000        0xc /usr/local/libmaple/arm/bin/../lib/gcc/arm-none-eabi/4.4.1/../../../../arm-none-eabi/lib/thumb2/libc.a(lib_a-locale.o)
 .data.__mb_cur_max
                0x00000000        0x4 /usr/local/libmaple/arm/bin/../lib/gcc/arm-none-eabi/4.4.1/../../../../arm-none-eabi/lib/thumb2/libc.a(lib_a-locale.o)
 .text          0x00000000        0x0 /usr/local/libmaple/arm/bin/../lib/gcc/arm-none-eabi/4.4.1/../../../../arm-none-eabi/lib/thumb2/libc.a(lib_a-malloc.o)
 .data          0x00000000        0x0 /usr/local/libmaple/arm/bin/../lib/gcc/arm-none-eabi/4.4.1/../../../../arm-none-eabi/lib/thumb2/libc.a(lib_a-malloc.o)
 .bss           0x00000000        0x0 /usr/local/libmaple/arm/bin/../lib/gcc/arm-none-eabi/4.4.1/../../../../arm-none-eabi/lib/thumb2/libc.a(lib_a-malloc.o)
 .text.free     0x00000000       0x10 /usr/local/libmaple/arm/bin/../lib/gcc/arm-none-eabi/4.4.1/../../../../arm-none-eabi/lib/thumb2/libc.a(lib_a-malloc.o)
 .text.malloc   0x00000000       0x10 /usr/local/libmaple/arm/bin/../lib/gcc/arm-none-eabi/4.4.1/../../../../arm-none-eabi/lib/thumb2/libc.a(lib_a-malloc.o)
 .text          0x00000000        0x0 /usr/local/libmaple/arm/bin/../lib/gcc/arm-none-eabi/4.4.1/../../../../arm-none-eabi/lib/thumb2/libc.a(lib_a-mallocr.o)
 .data          0x00000000        0x0 /usr/local/libmaple/arm/bin/../lib/gcc/arm-none-eabi/4.4.1/../../../../arm-none-eabi/lib/thumb2/libc.a(lib_a-mallocr.o)
 .bss           0x00000000        0x0 /usr/local/libmaple/arm/bin/../lib/gcc/arm-none-eabi/4.4.1/../../../../arm-none-eabi/lib/thumb2/libc.a(lib_a-mallocr.o)
 .text._malloc_r
                0x00000000      0x424 /usr/local/libmaple/arm/bin/../lib/gcc/arm-none-eabi/4.4.1/../../../../arm-none-eabi/lib/thumb2/libc.a(lib_a-mallocr.o)
 .data.__malloc_av_
                0x00000000      0x408 /usr/local/libmaple/arm/bin/../lib/gcc/arm-none-eabi/4.4.1/../../../../arm-none-eabi/lib/thumb2/libc.a(lib_a-mallocr.o)
 .data.__malloc_trim_threshold
                0x00000000        0x4 /usr/local/libmaple/arm/bin/../lib/gcc/arm-none-eabi/4.4.1/../../../../arm-none-eabi/lib/thumb2/libc.a(lib_a-mallocr.o)
 .bss.__malloc_max_total_mem
                0x00000000        0x4 /usr/local/libmaple/arm/bin/../lib/gcc/arm-none-eabi/4.4.1/../../../../arm-none-eabi/lib/thumb2/libc.a(lib_a-mallocr.o)
 .bss.__malloc_max_sbrked_mem
                0x00000000        0x4 /usr/local/libmaple/arm/bin/../lib/gcc/arm-none-eabi/4.4.1/../../../../arm-none-eabi/lib/thumb2/libc.a(lib_a-mallocr.o)
 .bss.__malloc_top_pad
                0x00000000        0x4 /usr/local/libmaple/arm/bin/../lib/gcc/arm-none-eabi/4.4.1/../../../../arm-none-eabi/lib/thumb2/libc.a(lib_a-mallocr.o)
 .bss.__malloc_current_mallinfo
                0x00000000       0x28 /usr/local/libmaple/arm/bin/../lib/gcc/arm-none-eabi/4.4.1/../../../../arm-none-eabi/lib/thumb2/libc.a(lib_a-mallocr.o)
 .data.__malloc_sbrk_base
                0x00000000        0x4 /usr/local/libmaple/arm/bin/../lib/gcc/arm-none-eabi/4.4.1/../../../../arm-none-eabi/lib/thumb2/libc.a(lib_a-mallocr.o)
 .text          0x00000000        0x0 /usr/local/libmaple/arm/bin/../lib/gcc/arm-none-eabi/4.4.1/../../../../arm-none-eabi/lib/thumb2/libc.a(lib_a-memchr.o)
 .data          0x00000000        0x0 /usr/local/libmaple/arm/bin/../lib/gcc/arm-none-eabi/4.4.1/../../../../arm-none-eabi/lib/thumb2/libc.a(lib_a-memchr.o)
 .bss           0x00000000        0x0 /usr/local/libmaple/arm/bin/../lib/gcc/arm-none-eabi/4.4.1/../../../../arm-none-eabi/lib/thumb2/libc.a(lib_a-memchr.o)
 .text.memchr   0x00000000       0x16 /usr/local/libmaple/arm/bin/../lib/gcc/arm-none-eabi/4.4.1/../../../../arm-none-eabi/lib/thumb2/libc.a(lib_a-memchr.o)
 .text          0x00000000        0x0 /usr/local/libmaple/arm/bin/../lib/gcc/arm-none-eabi/4.4.1/../../../../arm-none-eabi/lib/thumb2/libc.a(lib_a-memmove.o)
 .data          0x00000000        0x0 /usr/local/libmaple/arm/bin/../lib/gcc/arm-none-eabi/4.4.1/../../../../arm-none-eabi/lib/thumb2/libc.a(lib_a-memmove.o)
 .bss           0x00000000        0x0 /usr/local/libmaple/arm/bin/../lib/gcc/arm-none-eabi/4.4.1/../../../../arm-none-eabi/lib/thumb2/libc.a(lib_a-memmove.o)
 .text.memmove  0x00000000       0x3a /usr/local/libmaple/arm/bin/../lib/gcc/arm-none-eabi/4.4.1/../../../../arm-none-eabi/lib/thumb2/libc.a(lib_a-memmove.o)
 .text          0x00000000        0x0 /usr/local/libmaple/arm/bin/../lib/gcc/arm-none-eabi/4.4.1/../../../../arm-none-eabi/lib/thumb2/libc.a(lib_a-mlock.o)
 .data          0x00000000        0x0 /usr/local/libmaple/arm/bin/../lib/gcc/arm-none-eabi/4.4.1/../../../../arm-none-eabi/lib/thumb2/libc.a(lib_a-mlock.o)
 .bss           0x00000000        0x0 /usr/local/libmaple/arm/bin/../lib/gcc/arm-none-eabi/4.4.1/../../../../arm-none-eabi/lib/thumb2/libc.a(lib_a-mlock.o)
 .text.__malloc_lock
                0x00000000        0x2 /usr/local/libmaple/arm/bin/../lib/gcc/arm-none-eabi/4.4.1/../../../../arm-none-eabi/lib/thumb2/libc.a(lib_a-mlock.o)
 .text.__malloc_unlock
                0x00000000        0x2 /usr/local/libmaple/arm/bin/../lib/gcc/arm-none-eabi/4.4.1/../../../../arm-none-eabi/lib/thumb2/libc.a(lib_a-mlock.o)
 .text          0x00000000        0x0 /usr/local/libmaple/arm/bin/../lib/gcc/arm-none-eabi/4.4.1/../../../../arm-none-eabi/lib/thumb2/libc.a(lib_a-mprec.o)
 .data          0x00000000        0x0 /usr/local/libmaple/arm/bin/../lib/gcc/arm-none-eabi/4.4.1/../../../../arm-none-eabi/lib/thumb2/libc.a(lib_a-mprec.o)
 .bss           0x00000000        0x0 /usr/local/libmaple/arm/bin/../lib/gcc/arm-none-eabi/4.4.1/../../../../arm-none-eabi/lib/thumb2/libc.a(lib_a-mprec.o)
 .text.__hi0bits
                0x00000000       0x40 /usr/local/libmaple/arm/bin/../lib/gcc/arm-none-eabi/4.4.1/../../../../arm-none-eabi/lib/thumb2/libc.a(lib_a-mprec.o)
 .text.__lo0bits
                0x00000000       0x64 /usr/local/libmaple/arm/bin/../lib/gcc/arm-none-eabi/4.4.1/../../../../arm-none-eabi/lib/thumb2/libc.a(lib_a-mprec.o)
 .text.__mcmp   0x00000000       0x3e /usr/local/libmaple/arm/bin/../lib/gcc/arm-none-eabi/4.4.1/../../../../arm-none-eabi/lib/thumb2/libc.a(lib_a-mprec.o)
 .text.__ulp    0x00000000       0x44 /usr/local/libmaple/arm/bin/../lib/gcc/arm-none-eabi/4.4.1/../../../../arm-none-eabi/lib/thumb2/libc.a(lib_a-mprec.o)
 .text.__b2d    0x00000000       0xa8 /usr/local/libmaple/arm/bin/../lib/gcc/arm-none-eabi/4.4.1/../../../../arm-none-eabi/lib/thumb2/libc.a(lib_a-mprec.o)
 .text.__ratio  0x00000000       0x48 /usr/local/libmaple/arm/bin/../lib/gcc/arm-none-eabi/4.4.1/../../../../arm-none-eabi/lib/thumb2/libc.a(lib_a-mprec.o)
 .text._mprec_log10
                0x00000000       0x34 /usr/local/libmaple/arm/bin/../lib/gcc/arm-none-eabi/4.4.1/../../../../arm-none-eabi/lib/thumb2/libc.a(lib_a-mprec.o)
 .text.__copybits
                0x00000000       0x3c /usr/local/libmaple/arm/bin/../lib/gcc/arm-none-eabi/4.4.1/../../../../arm-none-eabi/lib/thumb2/libc.a(lib_a-mprec.o)
 .text.__any_on
                0x00000000       0x46 /usr/local/libmaple/arm/bin/../lib/gcc/arm-none-eabi/4.4.1/../../../../arm-none-eabi/lib/thumb2/libc.a(lib_a-mprec.o)
 .text._Bfree   0x00000000       0x2e /usr/local/libmaple/arm/bin/../lib/gcc/arm-none-eabi/4.4.1/../../../../arm-none-eabi/lib/thumb2/libc.a(lib_a-mprec.o)
 .text._Balloc  0x00000000       0x66 /usr/local/libmaple/arm/bin/../lib/gcc/arm-none-eabi/4.4.1/../../../../arm-none-eabi/lib/thumb2/libc.a(lib_a-mprec.o)
 .text.__d2b    0x00000000       0xc2 /usr/local/libmaple/arm/bin/../lib/gcc/arm-none-eabi/4.4.1/../../../../arm-none-eabi/lib/thumb2/libc.a(lib_a-mprec.o)
 .text.__mdiff  0x00000000       0xd0 /usr/local/libmaple/arm/bin/../lib/gcc/arm-none-eabi/4.4.1/../../../../arm-none-eabi/lib/thumb2/libc.a(lib_a-mprec.o)
 .text.__lshift
                0x00000000       0xa4 /usr/local/libmaple/arm/bin/../lib/gcc/arm-none-eabi/4.4.1/../../../../arm-none-eabi/lib/thumb2/libc.a(lib_a-mprec.o)
 .text.__multiply
                0x00000000      0x122 /usr/local/libmaple/arm/bin/../lib/gcc/arm-none-eabi/4.4.1/../../../../arm-none-eabi/lib/thumb2/libc.a(lib_a-mprec.o)
 .text.__i2b    0x00000000       0x12 /usr/local/libmaple/arm/bin/../lib/gcc/arm-none-eabi/4.4.1/../../../../arm-none-eabi/lib/thumb2/libc.a(lib_a-mprec.o)
 .text.__multadd
                0x00000000       0x82 /usr/local/libmaple/arm/bin/../lib/gcc/arm-none-eabi/4.4.1/../../../../arm-none-eabi/lib/thumb2/libc.a(lib_a-mprec.o)
 .text.__pow5mult
                0x00000000       0xa4 /usr/local/libmaple/arm/bin/../lib/gcc/arm-none-eabi/4.4.1/../../../../arm-none-eabi/lib/thumb2/libc.a(lib_a-mprec.o)
 .text.__s2b    0x00000000       0x82 /usr/local/libmaple/arm/bin/../lib/gcc/arm-none-eabi/4.4.1/../../../../arm-none-eabi/lib/thumb2/libc.a(lib_a-mprec.o)
 .rodata.p05.2463
                0x00000000        0xc /usr/local/libmaple/arm/bin/../lib/gcc/arm-none-eabi/4.4.1/../../../../arm-none-eabi/lib/thumb2/libc.a(lib_a-mprec.o)
 .rodata.__mprec_tens
                0x00000000       0xc8 /usr/local/libmaple/arm/bin/../lib/gcc/arm-none-eabi/4.4.1/../../../../arm-none-eabi/lib/thumb2/libc.a(lib_a-mprec.o)
 .rodata.__mprec_bigtens
                0x00000000       0x28 /usr/local/libmaple/arm/bin/../lib/gcc/arm-none-eabi/4.4.1/../../../../arm-none-eabi/lib/thumb2/libc.a(lib_a-mprec.o)
 .rodata.__mprec_tinytens
                0x00000000       0x28 /usr/local/libmaple/arm/bin/../lib/gcc/arm-none-eabi/4.4.1/../../../../arm-none-eabi/lib/thumb2/libc.a(lib_a-mprec.o)
 .text          0x00000000        0x0 /usr/local/libmaple/arm/bin/../lib/gcc/arm-none-eabi/4.4.1/../../../../arm-none-eabi/lib/thumb2/libc.a(lib_a-reallocr.o)
 .data          0x00000000        0x0 /usr/local/libmaple/arm/bin/../lib/gcc/arm-none-eabi/4.4.1/../../../../arm-none-eabi/lib/thumb2/libc.a(lib_a-reallocr.o)
 .bss           0x00000000        0x0 /usr/local/libmaple/arm/bin/../lib/gcc/arm-none-eabi/4.4.1/../../../../arm-none-eabi/lib/thumb2/libc.a(lib_a-reallocr.o)
 .text._realloc_r
                0x00000000      0x2f4 /usr/local/libmaple/arm/bin/../lib/gcc/arm-none-eabi/4.4.1/../../../../arm-none-eabi/lib/thumb2/libc.a(lib_a-reallocr.o)
 .text          0x00000000        0x0 /usr/local/libmaple/arm/bin/../lib/gcc/arm-none-eabi/4.4.1/../../../../arm-none-eabi/lib/thumb2/libc.a(lib_a-s_isinfd.o)
 .data          0x00000000        0x0 /usr/local/libmaple/arm/bin/../lib/gcc/arm-none-eabi/4.4.1/../../../../arm-none-eabi/lib/thumb2/libc.a(lib_a-s_isinfd.o)
 .bss           0x00000000        0x0 /usr/local/libmaple/arm/bin/../lib/gcc/arm-none-eabi/4.4.1/../../../../arm-none-eabi/lib/thumb2/libc.a(lib_a-s_isinfd.o)
 .text.__isinfd
                0x00000000       0x22 /usr/local/libmaple/arm/bin/../lib/gcc/arm-none-eabi/4.4.1/../../../../arm-none-eabi/lib/thumb2/libc.a(lib_a-s_isinfd.o)
 .text          0x00000000        0x0 /usr/local/libmaple/arm/bin/../lib/gcc/arm-none-eabi/4.4.1/../../../../arm-none-eabi/lib/thumb2/libc.a(lib_a-s_isnand.o)
 .data          0x00000000        0x0 /usr/local/libmaple/arm/bin/../lib/gcc/arm-none-eabi/4.4.1/../../../../arm-none-eabi/lib/thumb2/libc.a(lib_a-s_isnand.o)
 .bss           0x00000000        0x0 /usr/local/libmaple/arm/bin/../lib/gcc/arm-none-eabi/4.4.1/../../../../arm-none-eabi/lib/thumb2/libc.a(lib_a-s_isnand.o)
 .text.__isnand
                0x00000000       0x1a /usr/local/libmaple/arm/bin/../lib/gcc/arm-none-eabi/4.4.1/../../../../arm-none-eabi/lib/thumb2/libc.a(lib_a-s_isnand.o)
 .text          0x00000000        0x0 /usr/local/libmaple/arm/bin/../lib/gcc/arm-none-eabi/4.4.1/../../../../arm-none-eabi/lib/thumb2/libc.a(lib_a-sbrkr.o)
 .data          0x00000000        0x0 /usr/local/libmaple/arm/bin/../lib/gcc/arm-none-eabi/4.4.1/../../../../arm-none-eabi/lib/thumb2/libc.a(lib_a-sbrkr.o)
 .bss           0x00000000        0x0 /usr/local/libmaple/arm/bin/../lib/gcc/arm-none-eabi/4.4.1/../../../../arm-none-eabi/lib/thumb2/libc.a(lib_a-sbrkr.o)
 .text._sbrk_r  0x00000000       0x24 /usr/local/libmaple/arm/bin/../lib/gcc/arm-none-eabi/4.4.1/../../../../arm-none-eabi/lib/thumb2/libc.a(lib_a-sbrkr.o)
 .text          0x00000000        0x0 /usr/local/libmaple/arm/bin/../lib/gcc/arm-none-eabi/4.4.1/../../../../arm-none-eabi/lib/thumb2/libc.a(lib_a-strcmp.o)
 .data          0x00000000        0x0 /usr/local/libmaple/arm/bin/../lib/gcc/arm-none-eabi/4.4.1/../../../../arm-none-eabi/lib/thumb2/libc.a(lib_a-strcmp.o)
 .bss           0x00000000        0x0 /usr/local/libmaple/arm/bin/../lib/gcc/arm-none-eabi/4.4.1/../../../../arm-none-eabi/lib/thumb2/libc.a(lib_a-strcmp.o)
 .text.strcmp   0x00000000       0x16 /usr/local/libmaple/arm/bin/../lib/gcc/arm-none-eabi/4.4.1/../../../../arm-none-eabi/lib/thumb2/libc.a(lib_a-strcmp.o)
 .text          0x00000000        0x0 /usr/local/libmaple/arm/bin/../lib/gcc/arm-none-eabi/4.4.1/../../../../arm-none-eabi/lib/thumb2/libc.a(lib_a-callocr.o)
 .data          0x00000000        0x0 /usr/local/libmaple/arm/bin/../lib/gcc/arm-none-eabi/4.4.1/../../../../arm-none-eabi/lib/thumb2/libc.a(lib_a-callocr.o)
 .bss           0x00000000        0x0 /usr/local/libmaple/arm/bin/../lib/gcc/arm-none-eabi/4.4.1/../../../../arm-none-eabi/lib/thumb2/libc.a(lib_a-callocr.o)
 .text._calloc_r
                0x00000000       0x58 /usr/local/libmaple/arm/bin/../lib/gcc/arm-none-eabi/4.4.1/../../../../arm-none-eabi/lib/thumb2/libc.a(lib_a-callocr.o)
 .text          0x00000000        0x0 /usr/local/libmaple/arm/bin/../lib/gcc/arm-none-eabi/4.4.1/../../../../arm-none-eabi/lib/thumb2/libc.a(lib_a-reent.o)
 .data          0x00000000        0x0 /usr/local/libmaple/arm/bin/../lib/gcc/arm-none-eabi/4.4.1/../../../../arm-none-eabi/lib/thumb2/libc.a(lib_a-reent.o)
 .bss           0x00000000        0x0 /usr/local/libmaple/arm/bin/../lib/gcc/arm-none-eabi/4.4.1/../../../../arm-none-eabi/lib/thumb2/libc.a(lib_a-reent.o)
 .text._wrapup_reent
                0x00000000       0x30 /usr/local/libmaple/arm/bin/../lib/gcc/arm-none-eabi/4.4.1/../../../../arm-none-eabi/lib/thumb2/libc.a(lib_a-reent.o)
 .text.cleanup_glue
                0x00000000       0x1a /usr/local/libmaple/arm/bin/../lib/gcc/arm-none-eabi/4.4.1/../../../../arm-none-eabi/lib/thumb2/libc.a(lib_a-reent.o)
 .text._reclaim_reent
                0x00000000       0xb4 /usr/local/libmaple/arm/bin/../lib/gcc/arm-none-eabi/4.4.1/../../../../arm-none-eabi/lib/thumb2/libc.a(lib_a-reent.o)
 COMMON         0x00000000        0x4 /usr/local/libmaple/arm/bin/../lib/gcc/arm-none-eabi/4.4.1/../../../../arm-none-eabi/lib/thumb2/libc.a(lib_a-reent.o)
 .text          0x00000000      0x2b0 /usr/local/libmaple/arm/bin/../lib/gcc/arm-none-eabi/4.4.1/thumb2/libgcc.a(_divsi3.o)
 .data          0x00000000        0x0 /usr/local/libmaple/arm/bin/../lib/gcc/arm-none-eabi/4.4.1/thumb2/libgcc.a(_divsi3.o)
 .bss           0x00000000        0x0 /usr/local/libmaple/arm/bin/../lib/gcc/arm-none-eabi/4.4.1/thumb2/libgcc.a(_divsi3.o)
 .text          0x00000000        0x0 /usr/local/libmaple/arm/bin/../lib/gcc/arm-none-eabi/4.4.1/thumb2/crtend.o
 .data          0x00000000        0x0 /usr/local/libmaple/arm/bin/../lib/gcc/arm-none-eabi/4.4.1/thumb2/crtend.o
 .bss           0x00000000        0x0 /usr/local/libmaple/arm/bin/../lib/gcc/arm-none-eabi/4.4.1/thumb2/crtend.o
 .text          0x00000000        0x0 /usr/local/libmaple/arm/bin/../lib/gcc/arm-none-eabi/4.4.1/thumb2/crtn.o
 .data          0x00000000        0x0 /usr/local/libmaple/arm/bin/../lib/gcc/arm-none-eabi/4.4.1/thumb2/crtn.o
 .bss           0x00000000        0x0 /usr/local/libmaple/arm/bin/../lib/gcc/arm-none-eabi/4.4.1/thumb2/crtn.o
 .text          0x00000000        0x0 /usr/local/libmaple/support/ld/libcs3_stm32_med_density.a(stm32_vector_table.o)
 .data          0x00000000        0x0 /usr/local/libmaple/support/ld/libcs3_stm32_med_density.a(stm32_vector_table.o)
 .bss           0x00000000        0x0 /usr/local/libmaple/support/ld/libcs3_stm32_med_density.a(stm32_vector_table.o)
 .data          0x00000000        0x0 /usr/local/libmaple/support/ld/libcs3_stm32_med_density.a(stm32_isrs.o)
 .bss           0x00000000        0x0 /usr/local/libmaple/support/ld/libcs3_stm32_med_density.a(stm32_isrs.o)
 .data          0x00000000        0x0 /usr/local/libmaple/support/ld/libcs3_stm32_med_density.a(start.o)
 .bss           0x00000000        0x0 /usr/local/libmaple/support/ld/libcs3_stm32_med_density.a(start.o)
 .ARM.extab     0x00000000        0x0 /usr/local/libmaple/support/ld/libcs3_stm32_med_density.a(start.o)
 .data          0x00000000        0x0 /usr/local/libmaple/support/ld/libcs3_stm32_med_density.a(start_c.o)
 .bss           0x00000000        0x0 /usr/local/libmaple/support/ld/libcs3_stm32_med_density.a(start_c.o)
 .text          0x00000000        0x0 /usr/local/libmaple/arm/bin/../lib/gcc/arm-none-eabi/4.4.1/../../../../arm-none-eabi/lib/thumb2/libc.a(lib_a-init.o)
 .data          0x00000000        0x0 /usr/local/libmaple/arm/bin/../lib/gcc/arm-none-eabi/4.4.1/../../../../arm-none-eabi/lib/thumb2/libc.a(lib_a-init.o)
 .bss           0x00000000        0x0 /usr/local/libmaple/arm/bin/../lib/gcc/arm-none-eabi/4.4.1/../../../../arm-none-eabi/lib/thumb2/libc.a(lib_a-init.o)

Memory Configuration

Name             Origin             Length             Attributes
ram              0x20000c00         0x00004400         xrw
rom              0x08005000         0x0001b000         xr
*default*        0x00000000         0xffffffff

Linker script and memory map

LOAD /usr/local/libmaple/arm/bin/../lib/gcc/arm-none-eabi/4.4.1/thumb2/crti.o
LOAD /usr/local/libmaple/arm/bin/../lib/gcc/arm-none-eabi/4.4.1/thumb2/crtbegin.o
LOAD build//usr/local/libmaple/libmaple/adc.o
LOAD build//usr/local/libmaple/libmaple/bkp.o
LOAD build//usr/local/libmaple/libmaple/dac.o
LOAD build//usr/local/libmaple/libmaple/dma.o
LOAD build//usr/local/libmaple/libmaple/exti.o
LOAD build//usr/local/libmaple/libmaple/flash.o
LOAD build//usr/local/libmaple/libmaple/fsmc.o
LOAD build//usr/local/libmaple/libmaple/gpio.o
LOAD build//usr/local/libmaple/libmaple/iwdg.o
LOAD build//usr/local/libmaple/libmaple/nvic.o
LOAD build//usr/local/libmaple/libmaple/pwr.o
LOAD build//usr/local/libmaple/libmaple/i2c.o
LOAD build//usr/local/libmaple/libmaple/rcc.o
LOAD build//usr/local/libmaple/libmaple/spi.o
LOAD build//usr/local/libmaple/libmaple/syscalls.o
LOAD build//usr/local/libmaple/libmaple/systick.o
LOAD build//usr/local/libmaple/libmaple/timer.o
LOAD build//usr/local/libmaple/libmaple/usart.o
LOAD build//usr/local/libmaple/libmaple/util.o
LOAD build//usr/local/libmaple/libmaple/usb/descriptors.o
LOAD build//usr/local/libmaple/libmaple/usb/usb.o
LOAD build//usr/local/libmaple/libmaple/usb/usb_callbacks.o
LOAD build//usr/local/libmaple/libmaple/usb/usb_hardware.o
LOAD build//usr/local/libmaple/libmaple/usb/usb_lib/usb_core.o
LOAD build//usr/local/libmaple/libmaple/usb/usb_lib/usb_init.o
LOAD build//usr/local/libmaple/libmaple/usb/usb_lib/usb_int.o
LOAD build//usr/local/libmaple/libmaple/usb/usb_lib/usb_mem.o
LOAD build//usr/local/libmaple/libmaple/usb/usb_lib/usb_regs.o
LOAD build//usr/local/libmaple/libmaple/exc.o
LOAD build//usr/local/libmaple/wirish/wirish_math.o
LOAD build//usr/local/libmaple/wirish/Print.o
LOAD build//usr/local/libmaple/wirish/boards.o
LOAD build//usr/local/libmaple/wirish/boards/maple.o
LOAD build//usr/local/libmaple/wirish/boards/maple_mini.o
LOAD build//usr/local/libmaple/wirish/boards/maple_native.o
LOAD build//usr/local/libmaple/wirish/boards/maple_RET6.o
LOAD build//usr/local/libmaple/wirish/comm/HardwareSerial.o
LOAD build//usr/local/libmaple/wirish/comm/HardwareSPI.o
LOAD build//usr/local/libmaple/wirish/HardwareTimer.o
LOAD build//usr/local/libmaple/wirish/usb_serial.o
LOAD build//usr/local/libmaple/wirish/cxxabi-compat.o
LOAD build//usr/local/libmaple/wirish/wirish_shift.o
LOAD build//usr/local/libmaple/wirish/wirish_analog.o
LOAD build//usr/local/libmaple/wirish/wirish_time.o
LOAD build//usr/local/libmaple/wirish/pwm.o
LOAD build//usr/local/libmaple/wirish/ext_interrupts.o
LOAD build//usr/local/libmaple/wirish/wirish_digital.o
LOAD build//usr/local/libmaple/libraries/Servo/Servo.o
LOAD build//usr/local/libmaple/libraries/LiquidCrystal/LiquidCrystal.o
LOAD build//usr/local/libmaple/libraries/Wire/Wire.o
LOAD build//usr/local/libmaple/libraries/FreeRTOS/utility/croutine.o
LOAD build//usr/local/libmaple/libraries/FreeRTOS/utility/heap_2.o
LOAD build//usr/local/libmaple/libraries/FreeRTOS/utility/list.o
LOAD build//usr/local/libmaple/libraries/FreeRTOS/utility/port.o
LOAD build//usr/local/libmaple/libraries/FreeRTOS/utility/queue.o
LOAD build//usr/local/libmaple/libraries/FreeRTOS/utility/timers.o
LOAD build//usr/local/libmaple/libraries/FreeRTOS/utility/tasks.o
LOAD build//usr/local/libmaple/libraries/FreeRTOS/MapleFreeRTOS.o
LOAD build/main.o
LOAD /usr/local/libmaple/arm/bin/../lib/gcc/arm-none-eabi/4.4.1/../../../../arm-none-eabi/lib/thumb2/libstdc++.a
LOAD /usr/local/libmaple/arm/bin/../lib/gcc/arm-none-eabi/4.4.1/../../../../arm-none-eabi/lib/thumb2/libm.a
START GROUP
LOAD /usr/local/libmaple/arm/bin/../lib/gcc/arm-none-eabi/4.4.1/thumb2/libgcc.a
LOAD /usr/local/libmaple/arm/bin/../lib/gcc/arm-none-eabi/4.4.1/../../../../arm-none-eabi/lib/thumb2/libc.a
END GROUP
LOAD /usr/local/libmaple/arm/bin/../lib/gcc/arm-none-eabi/4.4.1/thumb2/crtend.o
LOAD /usr/local/libmaple/arm/bin/../lib/gcc/arm-none-eabi/4.4.1/thumb2/crtn.o
START GROUP
LOAD /usr/local/libmaple/support/ld/libcs3_stm32_med_density.a
END GROUP
START GROUP
LOAD /usr/local/libmaple/arm/bin/../lib/gcc/arm-none-eabi/4.4.1/thumb2/libgcc.a
LOAD /usr/local/libmaple/arm/bin/../lib/gcc/arm-none-eabi/4.4.1/../../../../arm-none-eabi/lib/thumb2/libc.a
LOAD /usr/local/libmaple/arm/bin/../lib/gcc/arm-none-eabi/4.4.1/../../../../arm-none-eabi/lib/thumb2/libm.a
END GROUP
                0x20005000                PROVIDE (__cs3_stack, (__cs3_region_start_ram + __cs3_region_size_ram))
                0x0800a86c                PROVIDE (__cs3_reset, _start)
                0x20001510                PROVIDE (__cs3_heap_start, _end)
                0x20005000                PROVIDE (__cs3_heap_end, (__cs3_region_start_ram + 0x4400))

.text           0x08005000     0x6c20
 CREATE_OBJECT_SYMBOLS
                0x08005000                __cs3_region_start_rom = .
 *(.cs3.region-head.rom)
                0x08005000                __cs3_interrupt_vector = __cs3_stm32_vector_table
 *(.cs3.interrupt_vector)
 .cs3.interrupt_vector
                0x08005000       0xec /usr/local/libmaple/support/ld/libcs3_stm32_med_density.a(stm32_vector_table.o)
                0x08005000                __cs3_stm32_vector_table
                0x08005001                ASSERT ((. != __cs3_stm32_vector_table), No interrupt vector)
 *(.rom)
 *(.rom.b)
 *(.rom)
 *(.rom.b)
 *(.text .text.* .gnu.linkonce.t.*)
 .text          0x080050ec       0x30 /usr/local/libmaple/arm/bin/../lib/gcc/arm-none-eabi/4.4.1/thumb2/crtbegin.o
 .text.adc_set_extsel
                0x0800511c       0x10 build//usr/local/libmaple/libmaple/adc.o
                0x0800511c                adc_set_extsel
 .text.adc_foreach
                0x0800512c       0x1c build//usr/local/libmaple/libmaple/adc.o
                0x0800512c                adc_foreach
 .text.adc_set_sample_rate
                0x08005148       0x2e build//usr/local/libmaple/libmaple/adc.o
                0x08005148                adc_set_sample_rate
 .text.adc_init
                0x08005176       0x14 build//usr/local/libmaple/libmaple/adc.o
                0x08005176                adc_init
 .text.adc_read
                0x0800518a       0x22 build//usr/local/libmaple/libmaple/adc.o
                0x0800518a                adc_read
 .text.bb_perip
                0x080051ac        0xc build//usr/local/libmaple/libmaple/adc.o
 .text.adc_calibrate
                0x080051b8       0x2e build//usr/local/libmaple/libmaple/adc.o
                0x080051b8                adc_calibrate
 .text.dma_clear_isr_bits
                0x080051e6       0x10 build//usr/local/libmaple/libmaple/dma.o
 .text.dispatch_handler
                0x080051f6       0x1c build//usr/local/libmaple/libmaple/dma.o
 *fill*         0x08005212        0x2 00
 .text.__irq_dma1_channel1
                0x08005214       0x10 build//usr/local/libmaple/libmaple/dma.o
                0x08005214                __irq_dma1_channel1
 .text.__irq_dma1_channel2
                0x08005224       0x10 build//usr/local/libmaple/libmaple/dma.o
                0x08005224                __irq_dma1_channel2
 .text.__irq_dma1_channel3
                0x08005234       0x10 build//usr/local/libmaple/libmaple/dma.o
                0x08005234                __irq_dma1_channel3
 .text.__irq_dma1_channel4
                0x08005244       0x10 build//usr/local/libmaple/libmaple/dma.o
                0x08005244                __irq_dma1_channel4
 .text.__irq_dma1_channel5
                0x08005254       0x10 build//usr/local/libmaple/libmaple/dma.o
                0x08005254                __irq_dma1_channel5
 .text.__irq_dma1_channel6
                0x08005264       0x10 build//usr/local/libmaple/libmaple/dma.o
                0x08005264                __irq_dma1_channel6
 .text.__irq_dma1_channel7
                0x08005274       0x10 build//usr/local/libmaple/libmaple/dma.o
                0x08005274                __irq_dma1_channel7
 .text.__bb_addr
                0x08005284        0xc build//usr/local/libmaple/libmaple/exti.o
 .text.bb_perip
                0x08005290        0xc build//usr/local/libmaple/libmaple/exti.o
 .text.clear_pending
                0x0800529c       0x18 build//usr/local/libmaple/libmaple/exti.o
 .text.dispatch_handler
                0x080052b4       0x30 build//usr/local/libmaple/libmaple/exti.o
 .text.__irq_exti15_10
                0x080052e4       0x30 build//usr/local/libmaple/libmaple/exti.o
                0x080052e4                __irq_exti15_10
 .text.__irq_exti9_5
                0x08005314       0x30 build//usr/local/libmaple/libmaple/exti.o
                0x08005314                __irq_exti9_5
 .text.__irq_exti4
                0x08005344       0x12 build//usr/local/libmaple/libmaple/exti.o
                0x08005344                __irq_exti4
 .text.__irq_exti3
                0x08005356       0x12 build//usr/local/libmaple/libmaple/exti.o
                0x08005356                __irq_exti3
 .text.__irq_exti2
                0x08005368       0x12 build//usr/local/libmaple/libmaple/exti.o
                0x08005368                __irq_exti2
 .text.__irq_exti1
                0x0800537a       0x12 build//usr/local/libmaple/libmaple/exti.o
                0x0800537a                __irq_exti1
 .text.__irq_exti0
                0x0800538c       0x12 build//usr/local/libmaple/libmaple/exti.o
                0x0800538c                __irq_exti0
 *fill*         0x0800539e        0x2 00
 .text.flash_set_latency
                0x080053a0       0x14 build//usr/local/libmaple/libmaple/flash.o
                0x080053a0                flash_set_latency
 .text.flash_enable_prefetch
                0x080053b4        0xc build//usr/local/libmaple/libmaple/flash.o
                0x080053b4                flash_enable_prefetch
 .text.gpio_set_mode
                0x080053c0       0x56 build//usr/local/libmaple/libmaple/gpio.o
                0x080053c0                gpio_set_mode
 .text.afio_init
                0x08005416       0x12 build//usr/local/libmaple/libmaple/gpio.o
                0x08005416                afio_init
 .text.gpio_init
                0x08005428       0x14 build//usr/local/libmaple/libmaple/gpio.o
                0x08005428                gpio_init
 .text.gpio_init_all
                0x0800543c       0x30 build//usr/local/libmaple/libmaple/gpio.o
                0x0800543c                gpio_init_all
 .text.nvic_irq_set_priority
                0x0800546c       0x2c build//usr/local/libmaple/libmaple/nvic.o
                0x0800546c                nvic_irq_set_priority
 .text.nvic_set_vector_table
                0x08005498       0x14 build//usr/local/libmaple/libmaple/nvic.o
                0x08005498                nvic_set_vector_table
 .text.nvic_init
                0x080054ac       0x24 build//usr/local/libmaple/libmaple/nvic.o
                0x080054ac                nvic_init
 .text.i2c_write
                0x080054d0        0x6 build//usr/local/libmaple/libmaple/i2c.o
 .text.i2c_start_condition
                0x080054d6       0x14 build//usr/local/libmaple/libmaple/i2c.o
 .text.i2c_stop_condition
                0x080054ea       0x1c build//usr/local/libmaple/libmaple/i2c.o
 .text.i2c_enable_irq
                0x08005506        0xc build//usr/local/libmaple/libmaple/i2c.o
 .text.i2c_disable_irq
                0x08005512        0xc build//usr/local/libmaple/libmaple/i2c.o
 .text.i2c_disable_ack
                0x0800551e        0xc build//usr/local/libmaple/libmaple/i2c.o
 .text.i2c_irq_error_handler
                0x0800552a       0x2a build//usr/local/libmaple/libmaple/i2c.o
 .text.__irq_i2c1_er
                0x08005554        0xc build//usr/local/libmaple/libmaple/i2c.o
                0x08005554                __irq_i2c1_er
 .text.__irq_i2c2_er
                0x08005560        0xc build//usr/local/libmaple/libmaple/i2c.o
                0x08005560                __irq_i2c2_er
 .text.i2c_irq_handler
                0x0800556c      0x158 build//usr/local/libmaple/libmaple/i2c.o
 .text.__irq_i2c2_ev
                0x080056c4        0xc build//usr/local/libmaple/libmaple/i2c.o
                0x080056c4                __irq_i2c2_ev
 .text.__irq_i2c1_ev
                0x080056d0        0xc build//usr/local/libmaple/libmaple/i2c.o
                0x080056d0                __irq_i2c1_ev
 .text.rcc_set_prescaler
                0x080056dc       0x20 build//usr/local/libmaple/libmaple/rcc.o
                0x080056dc                rcc_set_prescaler
 .text.rcc_clk_init
                0x080056fc       0x64 build//usr/local/libmaple/libmaple/rcc.o
                0x080056fc                rcc_clk_init
 .text.bb_peri_set_bit
                0x08005760        0xe build//usr/local/libmaple/libmaple/rcc.o
 *fill*         0x0800576e        0x2 00
 .text.rcc_reset_dev
                0x08005770       0x34 build//usr/local/libmaple/libmaple/rcc.o
                0x08005770                rcc_reset_dev
 .text.rcc_clk_enable
                0x080057a4       0x20 build//usr/local/libmaple/libmaple/rcc.o
                0x080057a4                rcc_clk_enable
 .text.systick_enable
                0x080057c4        0xc build//usr/local/libmaple/libmaple/systick.o
                0x080057c4                systick_enable
 .text.systick_init
                0x080057d0        0xc build//usr/local/libmaple/libmaple/systick.o
                0x080057d0                systick_init
 .text.__exc_systick
                0x080057dc       0x1c build//usr/local/libmaple/libmaple/systick.o
                0x080057dc                __exc_systick
 .text.timer_oc_set_mode
                0x080057f8       0x34 build//usr/local/libmaple/libmaple/timer.o
 .text.timer_disable
                0x0800582c       0x12 build//usr/local/libmaple/libmaple/timer.o
                0x0800582c                timer_disable
 *fill*         0x0800583e        0x2 00
 .text.timer_foreach
                0x08005840       0x30 build//usr/local/libmaple/libmaple/timer.o
                0x08005840                timer_foreach
 .text.dispatch_cc_irqs
                0x08005870       0x5c build//usr/local/libmaple/libmaple/timer.o
 .text.__irq_tim1_cc
                0x080058cc        0xc build//usr/local/libmaple/libmaple/timer.o
                0x080058cc                __irq_tim1_cc
 .text.timer_init
                0x080058d8       0x14 build//usr/local/libmaple/libmaple/timer.o
                0x080058d8                timer_init
 .text.bb_perip
                0x080058ec        0xc build//usr/local/libmaple/libmaple/timer.o
 .text.timer_disable_irq
                0x080058f8       0x10 build//usr/local/libmaple/libmaple/timer.o
 .text.timer_detach_interrupt
                0x08005908       0x14 build//usr/local/libmaple/libmaple/timer.o
                0x08005908                timer_detach_interrupt
 .text.timer_cc_enable
                0x0800591c       0x14 build//usr/local/libmaple/libmaple/timer.o
 .text.timer_set_mode
                0x08005930       0x90 build//usr/local/libmaple/libmaple/timer.o
                0x08005930                timer_set_mode
 .text.dispatch_irq
                0x080059c0       0x2a build//usr/local/libmaple/libmaple/timer.o
 *fill*         0x080059ea        0x2 00
 .text.__irq_tim1_trg_com
                0x080059ec       0x24 build//usr/local/libmaple/libmaple/timer.o
                0x080059ec                __irq_tim1_trg_com
 .text.__irq_tim1_up
                0x08005a10       0x10 build//usr/local/libmaple/libmaple/timer.o
                0x08005a10                __irq_tim1_up
 .text.__irq_tim1_brk
                0x08005a20       0x10 build//usr/local/libmaple/libmaple/timer.o
                0x08005a20                __irq_tim1_brk
 .text.dispatch_general
                0x08005a30       0x20 build//usr/local/libmaple/libmaple/timer.o
 .text.__irq_tim4
                0x08005a50        0xc build//usr/local/libmaple/libmaple/timer.o
                0x08005a50                __irq_tim4
 .text.__irq_tim3
                0x08005a5c        0xc build//usr/local/libmaple/libmaple/timer.o
                0x08005a5c                __irq_tim3
 .text.__irq_tim2
                0x08005a68        0xc build//usr/local/libmaple/libmaple/timer.o
                0x08005a68                __irq_tim2
 .text.usart_set_baud_rate
                0x08005a74       0x34 build//usr/local/libmaple/libmaple/usart.o
                0x08005a74                usart_set_baud_rate
 .text.usart_enable
                0x08005aa8       0x10 build//usr/local/libmaple/libmaple/usart.o
                0x08005aa8                usart_enable
 .text.usart_disable
                0x08005ab8       0x22 build//usr/local/libmaple/libmaple/usart.o
                0x08005ab8                usart_disable
 *fill*         0x08005ada        0x2 00
 .text.usart_foreach
                0x08005adc       0x24 build//usr/local/libmaple/libmaple/usart.o
                0x08005adc                usart_foreach
 .text.usart_tx
                0x08005b00       0x1c build//usr/local/libmaple/libmaple/usart.o
                0x08005b00                usart_tx
 .text.usart_putudec
                0x08005b1c       0x42 build//usr/local/libmaple/libmaple/usart.o
                0x08005b1c                usart_putudec
 .text.usart_irq
                0x08005b5e       0x4c build//usr/local/libmaple/libmaple/usart.o
 *fill*         0x08005baa        0x2 00
 .text.__irq_usart1
                0x08005bac        0xc build//usr/local/libmaple/libmaple/usart.o
                0x08005bac                __irq_usart1
 .text.__irq_usart2
                0x08005bb8        0xc build//usr/local/libmaple/libmaple/usart.o
                0x08005bb8                __irq_usart2
 .text.__irq_usart3
                0x08005bc4        0xc build//usr/local/libmaple/libmaple/usart.o
                0x08005bc4                __irq_usart3
 .text.usart_init
                0x08005bd0       0x44 build//usr/local/libmaple/libmaple/usart.o
                0x08005bd0                usart_init
 .text.nvic_irq_enable
                0x08005c14       0x1c build//usr/local/libmaple/libmaple/util.o
 .text.usart_putc
                0x08005c30       0x18 build//usr/local/libmaple/libmaple/util.o
 .text.usart_putstr
                0x08005c48       0x1a build//usr/local/libmaple/libmaple/util.o
 .text.T.12     0x08005c62       0x10 build//usr/local/libmaple/libmaple/util.o
 *fill*         0x08005c72        0x2 00
 .text.throb    0x08005c74       0x4c build//usr/local/libmaple/libmaple/util.o
                0x08005c74                throb
 .text.__error  0x08005cc0       0x48 build//usr/local/libmaple/libmaple/util.o
                0x08005cc0                __error
 .text._fail    0x08005d08       0x8c build//usr/local/libmaple/libmaple/util.o
                0x08005d08                _fail
 .text.adc_disable
                0x08005d94       0x12 build//usr/local/libmaple/libmaple/util.o
 *fill*         0x08005da6        0x2 00
 .text.usbSuspend
                0x08005da8       0x1c build//usr/local/libmaple/libmaple/usb/usb.o
                0x08005da8                usbSuspend
 .text.usbResumeInit
                0x08005dc4       0x1c build//usr/local/libmaple/libmaple/usb/usb.o
                0x08005dc4                usbResumeInit
 .text.usbResume
                0x08005de0       0x90 build//usr/local/libmaple/libmaple/usb/usb.o
                0x08005de0                usbResume
 .text.usbPowerOn
                0x08005e70       0x28 build//usr/local/libmaple/libmaple/usb/usb.o
                0x08005e70                usbPowerOn
 .text.usbBytesAvailable
                0x08005e98        0xc build//usr/local/libmaple/libmaple/usb/usb.o
                0x08005e98                usbBytesAvailable
 .text.usbIsConfigured
                0x08005ea4       0x14 build//usr/local/libmaple/libmaple/usb/usb.o
                0x08005ea4                usbIsConfigured
 .text.usbIsConnected
                0x08005eb8       0x10 build//usr/local/libmaple/libmaple/usb/usb.o
                0x08005eb8                usbIsConnected
 .text.usbReceiveBytes
                0x08005ec8       0x60 build//usr/local/libmaple/libmaple/usb/usb.o
                0x08005ec8                usbReceiveBytes
 .text.usbSendBytes
                0x08005f28       0x60 build//usr/local/libmaple/libmaple/usb/usb.o
                0x08005f28                usbSendBytes
 .text.__irq_usb_lp_can_rx0
                0x08005f88       0xe8 build//usr/local/libmaple/libmaple/usb/usb.o
                0x08005f88                __irq_usb_lp_can_rx0
 .text.usbEnbISR
                0x08006070       0x20 build//usr/local/libmaple/libmaple/usb/usb.o
                0x08006070                usbEnbISR
 .text.T.38     0x08006090       0x14 build//usr/local/libmaple/libmaple/usb/usb.o
 .text.setupUSB
                0x080060a4       0x34 build//usr/local/libmaple/libmaple/usb/usb.o
                0x080060a4                setupUSB
 .text.usbWaitReset
                0x080060d8       0x10 build//usr/local/libmaple/libmaple/usb/usb.o
                0x080060d8                usbWaitReset
 .text.vcomDataTxCb
                0x080060e8        0xc build//usr/local/libmaple/libmaple/usb/usb_callbacks.o
                0x080060e8                vcomDataTxCb
 .text.vcomManagementCb
                0x080060f4        0x2 build//usr/local/libmaple/libmaple/usb/usb_callbacks.o
                0x080060f4                vcomManagementCb
 *fill*         0x080060f6        0x2 00
 .text.vcomGetSetLineCoding
                0x080060f8       0x18 build//usr/local/libmaple/libmaple/usb/usb_callbacks.o
                0x080060f8                vcomGetSetLineCoding
 .text.usbStatusIn
                0x08006110        0x2 build//usr/local/libmaple/libmaple/usb/usb_callbacks.o
                0x08006110                usbStatusIn
 .text.usbStatusOut
                0x08006112        0x2 build//usr/local/libmaple/libmaple/usb/usb_callbacks.o
                0x08006112                usbStatusOut
 .text.usbDataSetup
                0x08006114       0x40 build//usr/local/libmaple/libmaple/usb/usb_callbacks.o
                0x08006114                usbDataSetup
 .text.usbNoDataSetup
                0x08006154       0x64 build//usr/local/libmaple/libmaple/usb/usb_callbacks.o
                0x08006154                usbNoDataSetup
 .text.usbGetInterfaceSetting
                0x080061b8        0xe build//usr/local/libmaple/libmaple/usb/usb_callbacks.o
                0x080061b8                usbGetInterfaceSetting
 *fill*         0x080061c6        0x2 00
 .text.usbSetConfiguration
                0x080061c8       0x18 build//usr/local/libmaple/libmaple/usb/usb_callbacks.o
                0x080061c8                usbSetConfiguration
 .text.usbSetDeviceAddress
                0x080061e0        0xc build//usr/local/libmaple/libmaple/usb/usb_callbacks.o
                0x080061e0                usbSetDeviceAddress
 .text.usbGetStringDescriptor
                0x080061ec       0x20 build//usr/local/libmaple/libmaple/usb/usb_callbacks.o
                0x080061ec                usbGetStringDescriptor
 .text.usbGetConfigDescriptor
                0x0800620c        0xc build//usr/local/libmaple/libmaple/usb/usb_callbacks.o
                0x0800620c                usbGetConfigDescriptor
 .text.usbGetDeviceDescriptor
                0x08006218        0xc build//usr/local/libmaple/libmaple/usb/usb_callbacks.o
                0x08006218                usbGetDeviceDescriptor
 .text.usbReset
                0x08006224      0x120 build//usr/local/libmaple/libmaple/usb/usb_callbacks.o
                0x08006224                usbReset
 .text.usbInit  0x08006344       0x3c build//usr/local/libmaple/libmaple/usb/usb_callbacks.o
                0x08006344                usbInit
 .text.vcomDataRxCb
                0x08006380       0xb8 build//usr/local/libmaple/libmaple/usb/usb_callbacks.o
                0x08006380                vcomDataRxCb
 .text.nvicInit
                0x08006438       0x6c build//usr/local/libmaple/libmaple/usb/usb_hardware.o
                0x08006438                nvicInit
 .text.systemHardReset
                0x080064a4       0x14 build//usr/local/libmaple/libmaple/usb/usb_hardware.o
                0x080064a4                systemHardReset
 .text.Standard_GetConfiguration
                0x080064b8       0x28 build//usr/local/libmaple/libmaple/usb/usb_lib/usb_core.o
                0x080064b8                Standard_GetConfiguration
 .text.Standard_SetConfiguration
                0x080064e0       0x38 build//usr/local/libmaple/libmaple/usb/usb_lib/usb_core.o
                0x080064e0                Standard_SetConfiguration
 .text.Standard_GetInterface
                0x08006518       0x28 build//usr/local/libmaple/libmaple/usb/usb_lib/usb_core.o
                0x08006518                Standard_GetInterface
 .text.Standard_SetInterface
                0x08006540       0x48 build//usr/local/libmaple/libmaple/usb/usb_lib/usb_core.o
                0x08006540                Standard_SetInterface
 .text.Standard_GetStatus
                0x08006588       0xa4 build//usr/local/libmaple/libmaple/usb/usb_lib/usb_core.o
                0x08006588                Standard_GetStatus
 .text.Standard_SetEndPointFeature
                0x0800662c       0x84 build//usr/local/libmaple/libmaple/usb/usb_lib/usb_core.o
                0x0800662c                Standard_SetEndPointFeature
 .text.Standard_SetDeviceFeature
                0x080066b0       0x24 build//usr/local/libmaple/libmaple/usb/usb_lib/usb_core.o
                0x080066b0                Standard_SetDeviceFeature
 .text.Standard_GetDescriptorData
                0x080066d4       0x1c build//usr/local/libmaple/libmaple/usb/usb_lib/usb_core.o
                0x080066d4                Standard_GetDescriptorData
 .text.SetDeviceAddress
                0x080066f0       0x44 build//usr/local/libmaple/libmaple/usb/usb_lib/usb_core.o
                0x080066f0                SetDeviceAddress
 .text.NOP_Process
                0x08006734        0x2 build//usr/local/libmaple/libmaple/usb/usb_lib/usb_core.o
                0x08006734                NOP_Process
 *fill*         0x08006736        0x2 00
 .text.Post0_Process
                0x08006738       0x44 build//usr/local/libmaple/libmaple/usb/usb_lib/usb_core.o
                0x08006738                Post0_Process
 .text.Out0_Process
                0x0800677c       0xd4 build//usr/local/libmaple/libmaple/usb/usb_lib/usb_core.o
                0x0800677c                Out0_Process
 .text.DataStageIn
                0x08006850       0xac build//usr/local/libmaple/libmaple/usb/usb_lib/usb_core.o
 .text.In0_Process
                0x080068fc       0x60 build//usr/local/libmaple/libmaple/usb/usb_lib/usb_core.o
                0x080068fc                In0_Process
 .text.Standard_ClearFeature
                0x0800695c       0xd4 build//usr/local/libmaple/libmaple/usb/usb_lib/usb_core.o
                0x0800695c                Standard_ClearFeature
 .text.Setup0_Process
                0x08006a30      0x304 build//usr/local/libmaple/libmaple/usb/usb_lib/usb_core.o
                0x08006a30                Setup0_Process
 .text.USB_Init
                0x08006d34       0x38 build//usr/local/libmaple/libmaple/usb/usb_lib/usb_init.o
                0x08006d34                USB_Init
 .text.CTR_LP   0x08006d6c      0x17c build//usr/local/libmaple/libmaple/usb/usb_lib/usb_int.o
                0x08006d6c                CTR_LP
 .text.UserToPMABufferCopy
                0x08006ee8       0x2e build//usr/local/libmaple/libmaple/usb/usb_lib/usb_mem.o
                0x08006ee8                UserToPMABufferCopy
 .text.PMAToUserBufferCopy
                0x08006f16       0x24 build//usr/local/libmaple/libmaple/usb/usb_lib/usb_mem.o
                0x08006f16                PMAToUserBufferCopy
 .text.SetEPType
                0x08006f3a       0x1a build//usr/local/libmaple/libmaple/usb/usb_lib/usb_regs.o
                0x08006f3a                SetEPType
 .text.SetEPTxStatus
                0x08006f54       0x2c build//usr/local/libmaple/libmaple/usb/usb_lib/usb_regs.o
                0x08006f54                SetEPTxStatus
 .text.SetEPRxStatus
                0x08006f80       0x2c build//usr/local/libmaple/libmaple/usb/usb_lib/usb_regs.o
                0x08006f80                SetEPRxStatus
 .text.SetEPRxValid
                0x08006fac       0x1c build//usr/local/libmaple/libmaple/usb/usb_lib/usb_regs.o
                0x08006fac                SetEPRxValid
 .text.Clear_Status_Out
                0x08006fc8       0x18 build//usr/local/libmaple/libmaple/usb/usb_lib/usb_regs.o
                0x08006fc8                Clear_Status_Out
 .text.ClearDTOG_RX
                0x08006fe0       0x24 build//usr/local/libmaple/libmaple/usb/usb_lib/usb_regs.o
                0x08006fe0                ClearDTOG_RX
 .text.ClearDTOG_TX
                0x08007004       0x24 build//usr/local/libmaple/libmaple/usb/usb_lib/usb_regs.o
                0x08007004                ClearDTOG_TX
 .text.SetEPTxAddr
                0x08007028       0x24 build//usr/local/libmaple/libmaple/usb/usb_lib/usb_regs.o
                0x08007028                SetEPTxAddr
 .text.SetEPRxAddr
                0x0800704c       0x24 build//usr/local/libmaple/libmaple/usb/usb_lib/usb_regs.o
                0x0800704c                SetEPRxAddr
 .text.GetEPTxAddr
                0x08007070       0x1c build//usr/local/libmaple/libmaple/usb/usb_lib/usb_regs.o
                0x08007070                GetEPTxAddr
 .text.GetEPRxAddr
                0x0800708c       0x1c build//usr/local/libmaple/libmaple/usb/usb_lib/usb_regs.o
                0x0800708c                GetEPRxAddr
 .text.SetEPTxCount
                0x080070a8       0x1c build//usr/local/libmaple/libmaple/usb/usb_lib/usb_regs.o
                0x080070a8                SetEPTxCount
 .text.SetEPRxCount
                0x080070c4       0x40 build//usr/local/libmaple/libmaple/usb/usb_lib/usb_regs.o
                0x080070c4                SetEPRxCount
 .text.GetEPRxCount
                0x08007104       0x20 build//usr/local/libmaple/libmaple/usb/usb_lib/usb_regs.o
                0x08007104                GetEPRxCount
 .text.ByteSwap
                0x08007124        0xa build//usr/local/libmaple/libmaple/usb/usb_lib/usb_regs.o
                0x08007124                ByteSwap
 *fill*         0x0800712e        0x2 00
 .text          0x08007130       0x60 build//usr/local/libmaple/libmaple/exc.o
                0x08007130                __exc_nmi
                0x08007134                __exc_hardfault
                0x08007138                __exc_memmanage
                0x0800713c                __exc_busfault
                0x08007140                __exc_usagefault
 .text._ZN5Print5writeEPKc
                0x08007190       0x1c build//usr/local/libmaple/wirish/Print.o
                0x08007190                _ZN5Print5writeEPKc
 .text._ZN5Print5writeEPKvj
                0x080071ac       0x20 build//usr/local/libmaple/wirish/Print.o
                0x080071ac                _ZN5Print5writeEPKvj
 .text._ZN5Print5printEc
                0x080071cc        0xa build//usr/local/libmaple/wirish/Print.o
                0x080071cc                _ZN5Print5printEc
 .text._ZN5Print5printEPKc
                0x080071d6        0xa build//usr/local/libmaple/wirish/Print.o
                0x080071d6                _ZN5Print5printEPKc
 .text._ZN5Print7printlnEv
                0x080071e0       0x16 build//usr/local/libmaple/wirish/Print.o
                0x080071e0                _ZN5Print7printlnEv
 .text._ZN5Print7printlnEPKc
                0x080071f6       0x12 build//usr/local/libmaple/wirish/Print.o
                0x080071f6                _ZN5Print7printlnEPKc
 .text._ZN5Print11printNumberEyh
                0x08007208       0x7c build//usr/local/libmaple/wirish/Print.o
                0x08007208                _ZN5Print11printNumberEyh
 .text._ZN5Print5printEyi
                0x08007284       0x1e build//usr/local/libmaple/wirish/Print.o
                0x08007284                _ZN5Print5printEyi
 .text._ZN5Print5printEji
                0x080072a2        0xe build//usr/local/libmaple/wirish/Print.o
                0x080072a2                _ZN5Print5printEji
 .text._ZN5Print7printlnEji
                0x080072b0       0x12 build//usr/local/libmaple/wirish/Print.o
                0x080072b0                _ZN5Print7printlnEji
 .text._ZN5Print5printEhi
                0x080072c2       0x12 build//usr/local/libmaple/wirish/Print.o
                0x080072c2                _ZN5Print5printEhi
 .text._ZN5Print7printlnEhi
                0x080072d4       0x12 build//usr/local/libmaple/wirish/Print.o
                0x080072d4                _ZN5Print7printlnEhi
 .text._ZN5Print5printExi
                0x080072e6       0x40 build//usr/local/libmaple/wirish/Print.o
                0x080072e6                _ZN5Print5printExi
 .text._ZN5Print5printEii
                0x08007326       0x10 build//usr/local/libmaple/wirish/Print.o
                0x08007326                _ZN5Print5printEii
 .text._ZN5Print7printlnEii
                0x08007336       0x12 build//usr/local/libmaple/wirish/Print.o
                0x08007336                _ZN5Print7printlnEii
 .text._ZN5Print10printFloatEdh
                0x08007348      0x150 build//usr/local/libmaple/wirish/Print.o
                0x08007348                _ZN5Print10printFloatEdh
 .text._ZN5Print5printEdi
                0x08007498        0xa build//usr/local/libmaple/wirish/Print.o
                0x08007498                _ZN5Print5printEdi
 .text._ZN5Print7printlnEdi
                0x080074a2       0x18 build//usr/local/libmaple/wirish/Print.o
                0x080074a2                _ZN5Print7printlnEdi
 *fill*         0x080074ba        0x2 00
 .text._Z12boardUsesPinh
                0x080074bc       0x1c build//usr/local/libmaple/wirish/boards.o
                0x080074bc                _Z12boardUsesPinh
 .text._Z4initv
                0x080074d8       0x7c build//usr/local/libmaple/wirish/boards.o
                0x080074d8                _Z4initv
 .text._ZL8bb_peripPVvj
                0x08007554        0xc build//usr/local/libmaple/wirish/boards.o
 .text._ZL16adcDefaultConfigPK7adc_dev
                0x08007560       0x3e build//usr/local/libmaple/wirish/boards.o
 .text._ZL18timerDefaultConfigP9timer_dev
                0x0800759e       0x98 build//usr/local/libmaple/wirish/boards.o
 .text._Z9boardInitv
                0x08007636        0x2 build//usr/local/libmaple/wirish/boards/maple.o
                0x08007636                _Z9boardInitv
 .text._GLOBAL__I__Z9boardInitv
                0x08007638      0x158 build//usr/local/libmaple/wirish/boards/maple.o
 .text._ZN5PrintC2Ev
                0x08007790        0xc build//usr/local/libmaple/wirish/comm/HardwareSerial.o
                0x08007790                _ZN5PrintC2Ev
 .text._ZN14HardwareSerialC1EP9usart_devhhj
                0x0800779c       0x24 build//usr/local/libmaple/wirish/comm/HardwareSerial.o
                0x0800779c                _ZN14HardwareSerialC1EP9usart_devhhj
 .text._ZN14HardwareSerial4readEv
                0x080077c0       0x1c build//usr/local/libmaple/wirish/comm/HardwareSerial.o
                0x080077c0                _ZN14HardwareSerial4readEv
 .text._ZN14HardwareSerial9availableEv
                0x080077dc       0x22 build//usr/local/libmaple/wirish/comm/HardwareSerial.o
                0x080077dc                _ZN14HardwareSerial9availableEv
 .text._ZN14HardwareSerial3endEv
                0x080077fe        0x6 build//usr/local/libmaple/wirish/comm/HardwareSerial.o
                0x080077fe                _ZN14HardwareSerial3endEv
 .text._ZN14HardwareSerial5beginEj
                0x08007804       0x8c build//usr/local/libmaple/wirish/comm/HardwareSerial.o
                0x08007804                _ZN14HardwareSerial5beginEj
 .text._ZN14HardwareSerial5writeEh
                0x08007890       0x18 build//usr/local/libmaple/wirish/comm/HardwareSerial.o
                0x08007890                _ZN14HardwareSerial5writeEh
 .text._GLOBAL__I_Serial1
                0x080078a8       0x58 build//usr/local/libmaple/wirish/comm/HardwareSerial.o
 .text._ZN13HardwareTimerC1Eh
                0x08007900       0x58 build//usr/local/libmaple/wirish/HardwareTimer.o
                0x08007900                _ZN13HardwareTimerC1Eh
 .text._GLOBAL__I__ZN13HardwareTimerC2Eh
                0x08007958       0x38 build//usr/local/libmaple/wirish/HardwareTimer.o
 .text._ZN9USBSerialC1Ev
                0x08007990       0x14 build//usr/local/libmaple/wirish/usb_serial.o
                0x08007990                _ZN9USBSerialC1Ev
 .text._ZN9USBSerial5writeEh
                0x080079a4       0x14 build//usr/local/libmaple/wirish/usb_serial.o
                0x080079a4                _ZN9USBSerial5writeEh
 .text._ZN9USBSerial4readEPvj
                0x080079b8       0x22 build//usr/local/libmaple/wirish/usb_serial.o
                0x080079b8                _ZN9USBSerial4readEPvj
 .text._ZN9USBSerial4readEv
                0x080079da       0x10 build//usr/local/libmaple/wirish/usb_serial.o
                0x080079da                _ZN9USBSerial4readEv
 .text._ZN9USBSerial9availableEv
                0x080079ea        0x4 build//usr/local/libmaple/wirish/usb_serial.o
                0x080079ea                _ZN9USBSerial9availableEv
 *fill*         0x080079ee        0x2 00
 .text._ZN9USBSerial5writeEPKvj
                0x080079f0       0x58 build//usr/local/libmaple/wirish/usb_serial.o
                0x080079f0                _ZN9USBSerial5writeEPKvj
 .text._ZN9USBSerial5writeEPKc
                0x08007a48       0x1a build//usr/local/libmaple/wirish/usb_serial.o
                0x08007a48                _ZN9USBSerial5writeEPKc
 *fill*         0x08007a62        0x2 00
 .text._GLOBAL__I__ZN9USBSerialC2Ev
                0x08007a64        0xc build//usr/local/libmaple/wirish/usb_serial.o
 .text.__cxa_pure_virtual
                0x08007a70        0x2 build//usr/local/libmaple/wirish/cxxabi-compat.o
                0x08007a70                __cxa_pure_virtual
 *fill*         0x08007a72        0x2 00
 .text._Z10analogReadh
                0x08007a74       0x1c build//usr/local/libmaple/wirish/wirish_analog.o
                0x08007a74                _Z10analogReadh
 .text._Z17delayMicrosecondsj
                0x08007a90        0xe build//usr/local/libmaple/wirish/wirish_time.o
                0x08007a90                _Z17delayMicrosecondsj
 .text._Z5delaym
                0x08007a9e       0x18 build//usr/local/libmaple/wirish/wirish_time.o
                0x08007a9e                _Z5delaym
 *fill*         0x08007ab6        0x2 00
 .text._Z8pwmWriteht
                0x08007ab8       0x30 build//usr/local/libmaple/wirish/pwm.o
                0x08007ab8                _Z8pwmWriteht
 .text._Z11digitalReadh
                0x08007ae8       0x2c build//usr/local/libmaple/wirish/wirish_digital.o
                0x08007ae8                _Z11digitalReadh
 .text._Z12digitalWritehh
                0x08007b14       0x30 build//usr/local/libmaple/wirish/wirish_digital.o
                0x08007b14                _Z12digitalWritehh
 .text._Z9togglePinh
                0x08007b44       0x24 build//usr/local/libmaple/wirish/wirish_digital.o
                0x08007b44                _Z9togglePinh
 .text._Z15isButtonPressedv
                0x08007b68       0x20 build//usr/local/libmaple/wirish/wirish_digital.o
                0x08007b68                _Z15isButtonPressedv
 .text._Z7pinModeh13WiringPinMode
                0x08007b88       0x88 build//usr/local/libmaple/wirish/wirish_digital.o
                0x08007b88                _Z7pinModeh13WiringPinMode
 .text._ZN7TwoWireC1Ev
                0x08007c10       0x20 build//usr/local/libmaple/libraries/Wire/Wire.o
                0x08007c10                _ZN7TwoWireC1Ev
 .text._GLOBAL__I_i2c_delay
                0x08007c30        0xc build//usr/local/libmaple/libraries/Wire/Wire.o
 .text.__exc_svc
                0x08007c3c       0x24 build//usr/local/libmaple/libraries/FreeRTOS/utility/port.o
                0x08007c3c                __exc_svc
 .text.__exc_pendsv
                0x08007c60       0x40 build//usr/local/libmaple/libraries/FreeRTOS/utility/port.o
                0x08007c60                __exc_pendsv
 .text.vTaskSwitchContext
                0x08007ca0       0xf0 build//usr/local/libmaple/libraries/FreeRTOS/utility/tasks.o
                0x08007ca0                vTaskSwitchContext
 .text.vApplicationStackOverflowHook
                0x08007d90        0x2 build//usr/local/libmaple/libraries/FreeRTOS/MapleFreeRTOS.o
                0x08007d90                vApplicationStackOverflowHook
 .text.gpio_toggle_bit
                0x08007d92       0x10 build/main.o
 *fill*         0x08007da2        0x2 00
 .text._ZL12set_prescaleP9timer_dev
                0x08007da4       0x10 build/main.o
 .text._Z7premainv
                0x08007db4        0x4 build/main.o
                0x08007db4                _Z7premainv
 .text._Z17print_board_arrayPKcPKhi
                0x08007db8       0x74 build/main.o
                0x08007db8                _Z17print_board_arrayPKcPKhi
 .text._Z14disable_usartsv
                0x08007e2c       0x24 build/main.o
                0x08007e2c                _Z14disable_usartsv
 .text._Z13enable_usartsv
                0x08007e50       0x30 build/main.o
                0x08007e50                _Z13enable_usartsv
 .text._Z15init_all_timerst
                0x08007e80       0x14 build/main.o
                0x08007e80                _Z15init_all_timerst
 .text._Z16serial_echo_testP14HardwareSerialj
                0x08007e94       0x34 build/main.o
                0x08007e94                _Z16serial_echo_testP14HardwareSerialj
 .text._Z14cmd_everythingv
                0x08007ec8       0x10 build/main.o
                0x08007ec8                _Z14cmd_everythingv
 .text._Z14cmd_print_helpv
                0x08007ed8      0x18c build/main.o
                0x08007ed8                _Z14cmd_print_helpv
 .text._Z16serial_baud_testPP14HardwareSerialij
                0x08008064       0x70 build/main.o
                0x08008064                _Z16serial_baud_testPP14HardwareSerialij
 .text._Z5setupv
                0x080080d4       0xd4 build/main.o
                0x080080d4                _Z5setupv
 .text._Z17measure_adc_noiseh
                0x080081a8       0xf0 build/main.o
                0x080081a8                _Z17measure_adc_noiseh
 .text._Z14cmd_board_infov
                0x08008298       0xbc build/main.o
                0x08008298                _Z14cmd_board_infov
 .text._Z15cmd_servo_sweepv
                0x08008354       0xb0 build/main.o
                0x08008354                _Z15cmd_servo_sweepv
 .text._Z23cmd_stressful_adc_statsv
                0x08008404       0x90 build/main.o
                0x08008404                _Z23cmd_stressful_adc_statsv
 .text._Z13cmd_adc_statsv
                0x08008494       0x38 build/main.o
                0x08008494                _Z13cmd_adc_statsv
 .text._Z23cmd_sequential_pwm_testv
                0x080084cc       0x90 build/main.o
                0x080084cc                _Z23cmd_sequential_pwm_testv
 .text._Z24cmd_sequential_adc_readsv
                0x0800855c      0x124 build/main.o
                0x0800855c                _Z24cmd_sequential_adc_readsv
 .text._Z16cmd_serial1_echov
                0x08008680       0x88 build/main.o
                0x08008680                _Z16cmd_serial1_echov
 .text._Z19cmd_serial1_serial3v
                0x08008708       0x9c build/main.o
                0x08008708                _Z19cmd_serial1_serial3v
 .text._Z12cmd_but_testv
                0x080087a4       0x54 build/main.o
                0x080087a4                _Z12cmd_but_testv
 .text._Z17cmd_gpio_togglingv
                0x080087f8       0x6c build/main.o
                0x080087f8                _Z17cmd_gpio_togglingv
 .text._Z28cmd_sequential_gpio_togglingv
                0x08008864       0x74 build/main.o
                0x08008864                _Z28cmd_sequential_gpio_togglingv
 .text._Z23wait_for_low_transitionh
                0x080088d8       0x2c build/main.o
                0x080088d8                _Z23wait_for_low_transitionh
 .text._Z19cmd_gpio_monitoringv
                0x08008904       0xb8 build/main.o
                0x08008904                _Z19cmd_gpio_monitoringv
 .text._Z23test_single_pin_is_highiPKc
                0x080089bc       0x68 build/main.o
                0x080089bc                _Z23test_single_pin_is_highiPKc
 .text._Z11cmd_gpio_qav
                0x08008a24      0x14c build/main.o
                0x08008a24                _Z11cmd_gpio_qav
 .text._ZL17disableDebugPortsv
                0x08008b70       0x14 build/main.o
 .text._Z23cmd_debug_gpio_togglingv
                0x08008b84       0x6c build/main.o
                0x08008b84                _Z23cmd_debug_gpio_togglingv
 .text._Z34cmd_sequential_debug_gpio_togglingv
                0x08008bf0       0x98 build/main.o
                0x08008bf0                _Z34cmd_sequential_debug_gpio_togglingv
 .text._Z9fast_gpioi
                0x08008c88       0xe8 build/main.o
                0x08008c88                _Z9fast_gpioi
 .text._Z4loopv
                0x08008d70      0x2e8 build/main.o
                0x08008d70                _Z4loopv
 .text.main     0x08009058        0xc build/main.o
                0x08009058                main
 .text          0x08009064      0x370 /usr/local/libmaple/arm/bin/../lib/gcc/arm-none-eabi/4.4.1/thumb2/libgcc.a(_arm_addsubdf3.o)
                0x08009064                __aeabi_drsub
                0x0800906c                __subdf3
                0x0800906c                __aeabi_dsub
                0x08009070                __aeabi_dadd
                0x08009070                __adddf3
                0x080092e8                __aeabi_ui2d
                0x080092e8                __floatunsidf
                0x08009308                __floatsidf
                0x08009308                __aeabi_i2d
                0x0800932c                __extendsfdf2
                0x0800932c                __aeabi_f2d
                0x08009368                __aeabi_ul2d
                0x08009368                __floatundidf
                0x08009378                __aeabi_l2d
                0x08009378                __floatdidf
 .text          0x080093d4      0x424 /usr/local/libmaple/arm/bin/../lib/gcc/arm-none-eabi/4.4.1/thumb2/libgcc.a(_arm_muldivdf3.o)
                0x080093d4                __aeabi_dmul
                0x080093d4                __muldf3
                0x08009628                __aeabi_ddiv
                0x08009628                __divdf3
 .text          0x080097f8      0x110 /usr/local/libmaple/arm/bin/../lib/gcc/arm-none-eabi/4.4.1/thumb2/libgcc.a(_arm_cmpdf2.o)
                0x080097f8                __gtdf2
                0x080097f8                __gedf2
                0x08009800                __ltdf2
                0x08009800                __ledf2
                0x08009808                __eqdf2
                0x08009808                __nedf2
                0x08009808                __cmpdf2
                0x08009884                __aeabi_cdrcmple
                0x08009894                __aeabi_cdcmple
                0x08009894                __aeabi_cdcmpeq
                0x080098a4                __aeabi_dcmpeq
                0x080098b8                __aeabi_dcmplt
                0x080098cc                __aeabi_dcmple
                0x080098e0                __aeabi_dcmpge
                0x080098f4                __aeabi_dcmpgt
 .text          0x08009908       0x50 /usr/local/libmaple/arm/bin/../lib/gcc/arm-none-eabi/4.4.1/thumb2/libgcc.a(_arm_fixdfsi.o)
                0x08009908                __fixdfsi
                0x08009908                __aeabi_d2iz
 .text          0x08009958      0x21c /usr/local/libmaple/arm/bin/../lib/gcc/arm-none-eabi/4.4.1/thumb2/libgcc.a(_arm_addsubsf3.o)
                0x08009958                __aeabi_frsub
                0x08009960                __aeabi_fsub
                0x08009960                __subsf3
                0x08009964                __aeabi_fadd
                0x08009964                __addsf3
                0x08009ac4                __aeabi_ui2f
                0x08009ac4                __floatunsisf
                0x08009acc                __floatsisf
                0x08009acc                __aeabi_i2f
                0x08009ae8                __aeabi_ul2f
                0x08009ae8                __floatundisf
                0x08009af8                __aeabi_l2f
                0x08009af8                __floatdisf
 .text          0x08009b74      0x2a0 /usr/local/libmaple/arm/bin/../lib/gcc/arm-none-eabi/4.4.1/thumb2/libgcc.a(_arm_muldivsf3.o)
                0x08009b74                __mulsf3
                0x08009b74                __aeabi_fmul
                0x08009cdc                __divsf3
                0x08009cdc                __aeabi_fdiv
 .text          0x08009e14       0x2c /usr/local/libmaple/arm/bin/../lib/gcc/arm-none-eabi/4.4.1/thumb2/libgcc.a(_aeabi_uldivmod.o)
                0x08009e14                __aeabi_uldivmod
 .text          0x08009e40       0x3c /usr/local/libmaple/arm/bin/../lib/gcc/arm-none-eabi/4.4.1/thumb2/libgcc.a(_fixdfdi.o)
                0x08009e40                __aeabi_d2lz
                0x08009e40                __fixdfdi
 .text          0x08009e7c       0x44 /usr/local/libmaple/arm/bin/../lib/gcc/arm-none-eabi/4.4.1/thumb2/libgcc.a(_fixunsdfdi.o)
                0x08009e7c                __aeabi_d2ulz
                0x08009e7c                __fixunsdfdi
 .text          0x08009ec0       0x58 /usr/local/libmaple/arm/bin/../lib/gcc/arm-none-eabi/4.4.1/thumb2/libgcc.a(bpabi.o)
                0x08009ec0                __gnu_uldivmod_helper
                0x08009eec                __gnu_ldivmod_helper
 .text          0x08009f18        0x4 /usr/local/libmaple/arm/bin/../lib/gcc/arm-none-eabi/4.4.1/thumb2/libgcc.a(_dvmd_tls.o)
                0x08009f18                __aeabi_ldiv0
                0x08009f18                __aeabi_idiv0
 .text          0x08009f1c       0x40 /usr/local/libmaple/arm/bin/../lib/gcc/arm-none-eabi/4.4.1/thumb2/libgcc.a(_arm_fixunsdfsi.o)
                0x08009f1c                __fixunsdfsi
                0x08009f1c                __aeabi_d2uiz
 .text          0x08009f5c      0x364 /usr/local/libmaple/arm/bin/../lib/gcc/arm-none-eabi/4.4.1/thumb2/libgcc.a(_divdi3.o)
                0x08009f5c                __divdi3
 .text          0x0800a2c0      0x300 /usr/local/libmaple/arm/bin/../lib/gcc/arm-none-eabi/4.4.1/thumb2/libgcc.a(_udivdi3.o)
                0x0800a2c0                __udivdi3
 .text          0x0800a5c0      0x278 /usr/local/libmaple/arm/bin/../lib/gcc/arm-none-eabi/4.4.1/thumb2/libgcc.a(_udivsi3.o)
                0x0800a5c0                __udivsi3
                0x0800a5c0                __aeabi_uidiv
                0x0800a81c                __aeabi_uidivmod
 .text.memcmp   0x0800a838       0x22 /usr/local/libmaple/arm/bin/../lib/gcc/arm-none-eabi/4.4.1/../../../../arm-none-eabi/lib/thumb2/libc.a(lib_a-memcmp.o)
                0x0800a838                memcmp
 .text.strlen   0x0800a85a       0x10 /usr/local/libmaple/arm/bin/../lib/gcc/arm-none-eabi/4.4.1/../../../../arm-none-eabi/lib/thumb2/libc.a(lib_a-strlen.o)
                0x0800a85a                strlen
 .text          0x0800a86a        0x2 /usr/local/libmaple/support/ld/libcs3_stm32_med_density.a(stm32_isrs.o)
                0x0800a86a                __irq_rcc
                0x0800a86a                __exc_debug_monitor
                0x0800a86a                __irq_adc
                0x0800a86a                __irq_can_rx1
                0x0800a86a                __irq_spi2
                0x0800a86a                __irq_can_sce
                0x0800a86a                __irq_pvd
                0x0800a86a                __irq_tamper
                0x0800a86a                __default_handler
                0x0800a86a                __irq_wwdg
                0x0800a86a                __stm32reservedexception10
                0x0800a86a                __irq_flash
                0x0800a86a                __stm32reservedexception13
                0x0800a86a                __irq_rtc
                0x0800a86a                __irq_spi1
                0x0800a86a                __stm32reservedexception7
                0x0800a86a                __irq_usb_hp_can_tx
                0x0800a86a                __irq_rtcalarm
                0x0800a86a                __stm32reservedexception8
                0x0800a86a                __irq_usbwakeup
                0x0800a86a                __stm32reservedexception9
 .text          0x0800a86c       0x10 /usr/local/libmaple/support/ld/libcs3_stm32_med_density.a(start.o)
                0x0800a86c                _start
 .text          0x0800a87c      0x108 /usr/local/libmaple/support/ld/libcs3_stm32_med_density.a(start_c.o)
                0x0800a87c                __cs3_start_c
 .text.__libc_init_array
                0x0800a984       0x4c /usr/local/libmaple/arm/bin/../lib/gcc/arm-none-eabi/4.4.1/../../../../arm-none-eabi/lib/thumb2/libc.a(lib_a-init.o)
                0x0800a984                __libc_init_array
 *(.plt)
 *(.gnu.warning)
 *(.glue_7t)
 .glue_7t       0x00000000        0x0 linker stubs
 *(.glue_7)
 .glue_7        0x00000000        0x0 linker stubs
 *(.vfp11_veneer)
 .vfp11_veneer  0x00000000        0x0 linker stubs
 *(.rodata .rodata.* .gnu.linkonce.r.*)
 .rodata.str1.1
                0x0800a9d0       0x44 build//usr/local/libmaple/libmaple/exti.o
                                 0x4c (size before relaxing)
 .rodata.GPIOA  0x0800aa14        0x4 build//usr/local/libmaple/libmaple/gpio.o
                0x0800aa14                GPIOA
 .rodata.GPIOB  0x0800aa18        0x4 build//usr/local/libmaple/libmaple/gpio.o
                0x0800aa18                GPIOB
 .rodata.GPIOC  0x0800aa1c        0x4 build//usr/local/libmaple/libmaple/gpio.o
                0x0800aa1c                GPIOC
 .rodata.GPIOD  0x0800aa20        0x4 build//usr/local/libmaple/libmaple/gpio.o
                0x0800aa20                GPIOD
 .rodata.reset_regs.1519
                0x0800aa24        0x8 build//usr/local/libmaple/libmaple/rcc.o
 .rodata.str1.1
                0x0800aa2c       0x5d build//usr/local/libmaple/libmaple/rcc.o
 *fill*         0x0800aa89        0x3 00
 .rodata.rcc_dev_table
                0x0800aa8c       0x34 build//usr/local/libmaple/libmaple/rcc.o
 .rodata.masks.1536
                0x0800aac0       0x14 build//usr/local/libmaple/libmaple/rcc.o
 .rodata.enable_regs.1508
                0x0800aad4        0xc build//usr/local/libmaple/libmaple/rcc.o
 .rodata.str1.1
                0x0800aae0       0xa3 build//usr/local/libmaple/libmaple/timer.o
                                 0xa5 (size before relaxing)
 .rodata.str1.1
                0x0800ab83       0x16 build//usr/local/libmaple/libmaple/util.o
                                 0x1d (size before relaxing)
 *fill*         0x0800ab99        0x3 00
 .rodata.usbVcomDescriptor_iProduct
                0x0800ab9c       0x14 build//usr/local/libmaple/libmaple/usb/descriptors.o
                0x0800ab9c                usbVcomDescriptor_iProduct
 .rodata.usbVcomDescriptor_iManufacturer
                0x0800abb0       0x14 build//usr/local/libmaple/libmaple/usb/descriptors.o
                0x0800abb0                usbVcomDescriptor_iManufacturer
 .rodata.usbVcomDescriptor_Device
                0x0800abc4       0x14 build//usr/local/libmaple/libmaple/usb/descriptors.o
                0x0800abc4                usbVcomDescriptor_Device
 .rodata.usbVcomDescriptor_Config
                0x0800abd8       0x44 build//usr/local/libmaple/libmaple/usb/descriptors.o
                0x0800abd8                usbVcomDescriptor_Config
 .rodata.usbVcomDescriptor_LangID
                0x0800ac1c        0x4 build//usr/local/libmaple/libmaple/usb/descriptors.o
                0x0800ac1c                usbVcomDescriptor_LangID
 .rodata._ZTV5Print
                0x0800ac20       0x18 build//usr/local/libmaple/wirish/Print.o
                0x0800ac20                _ZTV5Print
 .rodata.str1.1
                0x0800ac38        0xf build//usr/local/libmaple/wirish/Print.o
                                 0x11 (size before relaxing)
 .rodata.str1.1
                0x0800ac47       0x52 build//usr/local/libmaple/wirish/comm/HardwareSerial.o
 *fill*         0x0800ac99        0x7 00
 .rodata._ZTV14HardwareSerial
                0x0800aca0       0x18 build//usr/local/libmaple/wirish/comm/HardwareSerial.o
                0x0800aca0                _ZTV14HardwareSerial
 .rodata.str1.1
                0x0800acb8       0x2d build//usr/local/libmaple/wirish/HardwareTimer.o
                                 0x2f (size before relaxing)
 *fill*         0x0800ace5        0x3 00
 .rodata._ZTV9USBSerial
                0x0800ace8       0x18 build//usr/local/libmaple/wirish/usb_serial.o
                0x0800ace8                _ZTV9USBSerial
 .rodata.str1.1
                0x0800ad00       0x2e build//usr/local/libmaple/wirish/wirish_digital.o
                                 0x30 (size before relaxing)
 *fill*         0x0800ad2e        0x2 00
 .rodata.ucExpectedStackBytes.3388
                0x0800ad30       0x14 build//usr/local/libmaple/libraries/FreeRTOS/utility/tasks.o
 .rodata._ZZ19cmd_serial1_serial3vE4C.29
                0x0800ad44        0x8 build/main.o
 .rodata.str1.1
                0x0800ad4c      0xe85 build/main.o
                                0xe96 (size before relaxing)
 *(.ARM.extab* .gnu.linkonce.armextab.*)
 *(.gcc_except_table)
 *(.eh_frame_hdr)
 *(.eh_frame)
                0x0800bbd4                . = ALIGN (0x4)
 *fill*         0x0800bbd1        0x3 00
 *(.init)
 .init          0x0800bbd4        0x4 /usr/local/libmaple/arm/bin/../lib/gcc/arm-none-eabi/4.4.1/thumb2/crti.o
                0x0800bbd4                _init
 .init          0x0800bbd8        0x8 /usr/local/libmaple/arm/bin/../lib/gcc/arm-none-eabi/4.4.1/thumb2/crtn.o
                0x0800bbe0                . = ALIGN (0x4)
                0x0800bbe0                __preinit_array_start = .
 *(.preinit_array)
                0x0800bbe0                __preinit_array_end = .
                0x0800bbe0                . = ALIGN (0x4)
                0x0800bbe0                __init_array_start = .
 *(SORT(.init_array.*))
 *(.init_array)
 .init_array    0x0800bbe0        0x4 /usr/local/libmaple/arm/bin/../lib/gcc/arm-none-eabi/4.4.1/thumb2/crtbegin.o
 .init_array    0x0800bbe4        0x4 build//usr/local/libmaple/wirish/boards/maple.o
 .init_array    0x0800bbe8        0x4 build//usr/local/libmaple/wirish/comm/HardwareSerial.o
 .init_array    0x0800bbec        0x4 build//usr/local/libmaple/wirish/HardwareTimer.o
 .init_array    0x0800bbf0        0x4 build//usr/local/libmaple/wirish/usb_serial.o
 .init_array    0x0800bbf4        0x4 build//usr/local/libmaple/libraries/Wire/Wire.o
 .init_array    0x0800bbf8        0x4 build/main.o
                0x0800bbfc                __init_array_end = .
                0x0800bbfc                . = ALIGN (0x4)
 *crtbegin.o(.ctors)
 *(EXCLUDE_FILE(*crtend.o) .ctors)
 *(SORT(.ctors.*))
 *crtend.o(.ctors)
                0x0800bbfc                . = ALIGN (0x4)
 *(.fini)
 .fini          0x0800bbfc        0x4 /usr/local/libmaple/arm/bin/../lib/gcc/arm-none-eabi/4.4.1/thumb2/crti.o
                0x0800bbfc                _fini
 .fini          0x0800bc00        0x8 /usr/local/libmaple/arm/bin/../lib/gcc/arm-none-eabi/4.4.1/thumb2/crtn.o
                0x0800bc08                . = ALIGN (0x4)
                0x0800bc08                __fini_array_start = .
 *(.fini_array)
 .fini_array    0x0800bc08        0x4 /usr/local/libmaple/arm/bin/../lib/gcc/arm-none-eabi/4.4.1/thumb2/crtbegin.o
 *(SORT(.fini_array.*))
                0x0800bc0c                __fini_array_end = .
 *crtbegin.o(.dtors)
 *(EXCLUDE_FILE(*crtend.o) .dtors)
 *(SORT(.dtors.*))
 *crtend.o(.dtors)
                0x0800bc0c                . = ALIGN (0x4)
                0x0800bc0c                __cs3_regions = .
                0x0800bc0c        0x4 LONG 0x0
                0x0800bc10        0x4 LONG 0x800bc50 __cs3_region_init_ram
                0x0800bc14        0x4 LONG 0x20000c00 __cs3_region_start_ram
                0x0800bc18        0x4 LONG 0x670 __cs3_region_init_size_ram
                0x0800bc1c        0x4 LONG 0x2a0 __cs3_region_zero_size_ram
                0x0800bc20                __exidx_start = .

.v4_bx          0x0800bc20        0x0
 .v4_bx         0x00000000        0x0 linker stubs

.ARM.exidx      0x0800bc20        0x8
 *(.ARM.exidx* .gnu.linkonce.armexidx.*)
 .ARM.exidx     0x0800bc20        0x8 /usr/local/libmaple/arm/bin/../lib/gcc/arm-none-eabi/4.4.1/thumb2/libgcc.a(_divdi3.o)
 .ARM.exidx     0x0800bc28        0x0 /usr/local/libmaple/arm/bin/../lib/gcc/arm-none-eabi/4.4.1/thumb2/libgcc.a(_udivdi3.o)
                                  0x8 (size before relaxing)
 .ARM.exidx     0x0800bc28        0x0 /usr/local/libmaple/support/ld/libcs3_stm32_med_density.a(start.o)
                                  0x8 (size before relaxing)
                0x0800bc28                __exidx_end = .

.text.align     0x0800bc28        0x0
                0x0800bc28                . = ALIGN (0x8)
                0x0800bc28                _etext = .

.USER_FLASH     0x0800bc28       0x28
 *(.USER_FLASH)
 .USER_FLASH    0x0800bc28       0x28 build//usr/local/libmaple/wirish/boards/maple.o
                0x0800bc28                boardPWMPins
                0x0800bc38                boardADCPins
                0x0800bc48                boardUsedPins
                0x08020000                __cs3_region_end_rom = (__cs3_region_start_rom + 0x1b000)
                0x0001b000                __cs3_region_size_rom = 0x1b000
                0x00000001                __cs3_region_num = 0x1

.data           0x20000c00      0x670 load address 0x0800bc50
                0x20000c00                ram_begin = DEFINED (RAM_BUILD)?.:.
 *(.cs3.region-head.ram_begin)
                0x20000c00                __cs3_region_start_ram = .
 *(.cs3.region-head.ram)
 *(.jcr)
 .jcr           0x20000c00        0x0 /usr/local/libmaple/arm/bin/../lib/gcc/arm-none-eabi/4.4.1/thumb2/crtbegin.o
 .jcr           0x20000c00        0x4 /usr/local/libmaple/arm/bin/../lib/gcc/arm-none-eabi/4.4.1/thumb2/crtend.o
 *(.got.plt)
 *(.got)
 *(.shdata)
 *(.data .data.* .gnu.linkonce.d.*)
 .data.adc1     0x20000c04        0x8 build//usr/local/libmaple/libmaple/adc.o
 .data.adc2     0x20000c0c        0x8 build//usr/local/libmaple/libmaple/adc.o
 .data.ADC1     0x20000c14        0x4 build//usr/local/libmaple/libmaple/adc.o
                0x20000c14                ADC1
 .data.ADC2     0x20000c18        0x4 build//usr/local/libmaple/libmaple/adc.o
                0x20000c18                ADC2
 .data.DMA1     0x20000c1c        0x4 build//usr/local/libmaple/libmaple/dma.o
                0x20000c1c                DMA1
 .data.dma1     0x20000c20       0x40 build//usr/local/libmaple/libmaple/dma.o
 .data.exti_channels
                0x20000c60       0x80 build//usr/local/libmaple/libmaple/exti.o
 .data.gpioa    0x20000ce0        0x8 build//usr/local/libmaple/libmaple/gpio.o
                0x20000ce0                gpioa
 .data.gpiob    0x20000ce8        0x8 build//usr/local/libmaple/libmaple/gpio.o
                0x20000ce8                gpiob
 .data.gpioc    0x20000cf0        0x8 build//usr/local/libmaple/libmaple/gpio.o
                0x20000cf0                gpioc
 .data.gpiod    0x20000cf8        0x8 build//usr/local/libmaple/libmaple/gpio.o
                0x20000cf8                gpiod
 .data.i2c_dev1
                0x20000d00       0x1c build//usr/local/libmaple/libmaple/i2c.o
 .data.i2c_dev2
                0x20000d1c       0x1c build//usr/local/libmaple/libmaple/i2c.o
 .data.timer3   0x20000d38       0x24 build//usr/local/libmaple/libmaple/timer.o
 .data.timer4   0x20000d5c       0x24 build//usr/local/libmaple/libmaple/timer.o
 .data.TIMER1   0x20000d80        0x4 build//usr/local/libmaple/libmaple/timer.o
                0x20000d80                TIMER1
 .data.TIMER2   0x20000d84        0x4 build//usr/local/libmaple/libmaple/timer.o
                0x20000d84                TIMER2
 .data.TIMER3   0x20000d88        0x4 build//usr/local/libmaple/libmaple/timer.o
                0x20000d88                TIMER3
 .data.TIMER4   0x20000d8c        0x4 build//usr/local/libmaple/libmaple/timer.o
                0x20000d8c                TIMER4
 .data.timer1   0x20000d90       0x28 build//usr/local/libmaple/libmaple/timer.o
 .data.timer2   0x20000db8       0x24 build//usr/local/libmaple/libmaple/timer.o
 .data.USART1   0x20000ddc        0x4 build//usr/local/libmaple/libmaple/usart.o
                0x20000ddc                USART1
 .data.USART2   0x20000de0        0x4 build//usr/local/libmaple/libmaple/usart.o
                0x20000de0                USART2
 .data.USART3   0x20000de4        0x4 build//usr/local/libmaple/libmaple/usart.o
                0x20000de4                USART3
 .data.usart1   0x20000de8       0x50 build//usr/local/libmaple/libmaple/usart.o
 .data.usart2   0x20000e38       0x50 build//usr/local/libmaple/libmaple/usart.o
 .data.usart3   0x20000e88       0x50 build//usr/local/libmaple/libmaple/usart.o
 .data.Device_Property
                0x20000ed8       0x30 build//usr/local/libmaple/libmaple/usb/usb.o
                0x20000ed8                Device_Property
 .data.pEpInt_IN
                0x20000f08       0x1c build//usr/local/libmaple/libmaple/usb/usb.o
                0x20000f08                pEpInt_IN
 .data.pEpInt_OUT
                0x20000f24       0x1c build//usr/local/libmaple/libmaple/usb/usb.o
                0x20000f24                pEpInt_OUT
 .data.User_Standard_Requests
                0x20000f40       0x24 build//usr/local/libmaple/libmaple/usb/usb.o
                0x20000f40                User_Standard_Requests
 .data.Device_Table
                0x20000f64        0x4 build//usr/local/libmaple/libmaple/usb/usb.o
                0x20000f64                Device_Table
 .data.Config_Descriptor
                0x20000f68        0x8 build//usr/local/libmaple/libmaple/usb/usb_callbacks.o
                0x20000f68                Config_Descriptor
 .data.maxNewBytes
                0x20000f70        0x4 build//usr/local/libmaple/libmaple/usb/usb_callbacks.o
                0x20000f70                maxNewBytes
 .data.Device_Descriptor
                0x20000f74        0x8 build//usr/local/libmaple/libmaple/usb/usb_callbacks.o
                0x20000f74                Device_Descriptor
 .data.String_Descriptor
                0x20000f7c       0x18 build//usr/local/libmaple/libmaple/usb/usb_callbacks.o
                0x20000f7c                String_Descriptor
 .data.line_coding
                0x20000f94        0x8 build//usr/local/libmaple/libmaple/usb/usb_callbacks.o
                0x20000f94                line_coding
 .data.PIN_MAP  0x20000f9c      0x2c0 build//usr/local/libmaple/wirish/boards/maple.o
                0x20000f9c                PIN_MAP
 .data.i2c_delay
                0x2000125c        0x4 build//usr/local/libmaple/libraries/Wire/Wire.o
                0x2000125c                i2c_delay
 .data.uxPreviousTask
                0x20001260        0x4 build//usr/local/libmaple/libraries/FreeRTOS/utility/tasks.o
 .data.dummy_data
                0x20001264        0x4 build/main.o
                0x20001264                dummy_data
 .data.debugGPIOPins
                0x20001268        0x8 build/main.o
                0x20001268                debugGPIOPins
 *(.ram)
                0x20001270                . = ALIGN (0x8)
                0x20001270                _edata = .

.bss            0x20001270      0x2a0 load address 0x0800c2c0
 *(.shbss)
 *(.bss .bss.* .gnu.linkonce.b.*)
 .bss           0x20001270        0x1 /usr/local/libmaple/arm/bin/../lib/gcc/arm-none-eabi/4.4.1/thumb2/crtbegin.o
 *fill*         0x20001271        0x3 00
 .bss.systick_user_callback
                0x20001274        0x4 build//usr/local/libmaple/libmaple/systick.o
 .bss.usart1_rb
                0x20001278        0xc build//usr/local/libmaple/libmaple/usart.o
 .bss.usart2_rb
                0x20001284        0xc build//usr/local/libmaple/libmaple/usart.o
 .bss.usart3_rb
                0x20001290        0xc build//usr/local/libmaple/libmaple/usart.o
 .bss.bIntPackSOF
                0x2000129c        0x4 build//usr/local/libmaple/libmaple/usb/usb.o
                0x2000129c                bIntPackSOF
 .bss.wIstr     0x200012a0        0x2 build//usr/local/libmaple/libmaple/usb/usb.o
                0x200012a0                wIstr
 *fill*         0x200012a2        0x2 00
 .bss.offset.2323
                0x200012a4        0x4 build//usr/local/libmaple/libmaple/usb/usb.o
 .bss.bDeviceState
                0x200012a8        0x4 build//usr/local/libmaple/libmaple/usb/usb.o
                0x200012a8                bDeviceState
 .bss.line_dtr_rts
                0x200012ac        0x1 build//usr/local/libmaple/libmaple/usb/usb_callbacks.o
                0x200012ac                line_dtr_rts
 *fill*         0x200012ad        0x3 00
 .bss.recvBufOut
                0x200012b0        0x4 build//usr/local/libmaple/libmaple/usb/usb_callbacks.o
                0x200012b0                recvBufOut
 .bss.reset_state
                0x200012b4        0x1 build//usr/local/libmaple/libmaple/usb/usb_callbacks.o
                0x200012b4                reset_state
 .bss.last_request
                0x200012b5        0x1 build//usr/local/libmaple/libmaple/usb/usb_callbacks.o
                0x200012b5                last_request
 *fill*         0x200012b6        0x2 00
 .bss.newBytes  0x200012b8        0x4 build//usr/local/libmaple/libmaple/usb/usb_callbacks.o
                0x200012b8                newBytes
 .bss.countTx   0x200012bc        0x4 build//usr/local/libmaple/libmaple/usb/usb_callbacks.o
                0x200012bc                countTx
 .bss.recvBufIn
                0x200012c0        0x4 build//usr/local/libmaple/libmaple/usb/usb_callbacks.o
                0x200012c0                recvBufIn
 .bss.Data_Mul_MaxPacketSize
                0x200012c4        0x1 build//usr/local/libmaple/libmaple/usb/usb_lib/usb_core.o
                0x200012c4                Data_Mul_MaxPacketSize
 *fill*         0x200012c5        0x3 00
 .bss.Serial1   0x200012c8       0x10 build//usr/local/libmaple/wirish/comm/HardwareSerial.o
                0x200012c8                Serial1
 .bss.Serial2   0x200012d8       0x10 build//usr/local/libmaple/wirish/comm/HardwareSerial.o
                0x200012d8                Serial2
 .bss.Serial3   0x200012e8       0x10 build//usr/local/libmaple/wirish/comm/HardwareSerial.o
                0x200012e8                Serial3
 .bss.Timer1    0x200012f8        0x4 build//usr/local/libmaple/wirish/HardwareTimer.o
                0x200012f8                Timer1
 .bss.Timer2    0x200012fc        0x4 build//usr/local/libmaple/wirish/HardwareTimer.o
                0x200012fc                Timer2
 .bss.Timer3    0x20001300        0x4 build//usr/local/libmaple/wirish/HardwareTimer.o
                0x20001300                Timer3
 .bss.Timer4    0x20001304        0x4 build//usr/local/libmaple/wirish/HardwareTimer.o
                0x20001304                Timer4
 .bss.SerialUSB
                0x20001308        0x4 build//usr/local/libmaple/wirish/usb_serial.o
                0x20001308                SerialUSB
 .bss.Wire      0x2000130c       0x48 build//usr/local/libmaple/libraries/Wire/Wire.o
                0x2000130c                Wire
 .bss.uxTopReadyPriority
                0x20001354        0x4 build//usr/local/libmaple/libraries/FreeRTOS/utility/tasks.o
 .bss.xTickCount
                0x20001358        0x4 build//usr/local/libmaple/libraries/FreeRTOS/utility/tasks.o
 .bss.pxReadyTasksLists
                0x2000135c       0x64 build//usr/local/libmaple/libraries/FreeRTOS/utility/tasks.o
 .bss.xTracing  0x200013c0        0x4 build//usr/local/libmaple/libraries/FreeRTOS/utility/tasks.o
 .bss.xMissedYield
                0x200013c4        0x4 build//usr/local/libmaple/libraries/FreeRTOS/utility/tasks.o
 .bss.pcTraceBuffer
                0x200013c8        0x4 build//usr/local/libmaple/libraries/FreeRTOS/utility/tasks.o
 .bss.pxCurrentTCB
                0x200013cc        0x4 build//usr/local/libmaple/libraries/FreeRTOS/utility/tasks.o
                0x200013cc                pxCurrentTCB
 .bss.uxSchedulerSuspended
                0x200013d0        0x4 build//usr/local/libmaple/libraries/FreeRTOS/utility/tasks.o
 .bss.pcTraceBufferEnd
                0x200013d4        0x4 build//usr/local/libmaple/libraries/FreeRTOS/utility/tasks.o
 .bss._ZL24init_all_timers_prescale
                0x200013d8        0x2 build/main.o
 *fill*         0x200013da        0x2 00
 .bss.gpio_state
                0x200013dc       0x2c build/main.o
                0x200013dc                gpio_state
 *(COMMON)
 COMMON         0x20001408        0x4 build//usr/local/libmaple/libmaple/systick.o
                0x20001408                systick_uptime_millis
 COMMON         0x2000140c        0x2 build//usr/local/libmaple/libmaple/usb/usb.o
                0x2000140c                ResumeS
 *fill*         0x2000140e        0x2 00
 COMMON         0x20001410       0xc0 build//usr/local/libmaple/libmaple/usb/usb_callbacks.o
                0x20001410                vcomBufferRx
 COMMON         0x200014d0        0x2 build//usr/local/libmaple/libmaple/usb/usb_lib/usb_core.o
                0x200014d0                StatusInfo
 *fill*         0x200014d2        0x2 00
 COMMON         0x200014d4       0x32 build//usr/local/libmaple/libmaple/usb/usb_lib/usb_init.o
                0x200014d4                SaveState
                0x200014d8                pProperty
                0x200014dc                EPindex
                0x200014e0                Device_Info
                0x200014fc                pUser_Standard_Requests
                0x20001500                pInformation
                0x20001504                wInterrupt_Mask
 COMMON         0x20001506        0x4 build//usr/local/libmaple/libmaple/usb/usb_lib/usb_int.o
                0x20001506                SaveRState
                0x20001508                SaveTState
 *(.ram.b)
                0x20001510                . = ALIGN (0x8)
 *fill*         0x2000150a        0x6 00
                0x20001510                _end = .
                0x20001510                __end = .
                0x20005000                __cs3_region_end_ram = (__cs3_region_start_ram + 0x4400)
                0x00004400                __cs3_region_size_ram = 0x4400
                0x0800bc50                __cs3_region_init_ram = LOADADDR (.data)
                0x00000670                __cs3_region_init_size_ram = (_edata - ADDR (.data))
                0x000002a0                __cs3_region_zero_size_ram = (_end - _edata)
                0x00000001                __cs3_region_num = 0x1

.stab
 *(.stab)

.stabstr
 *(.stabstr)

.debug
 *(.debug)

.line
 *(.line)

.debug_srcinfo
 *(.debug_srcinfo)

.debug_sfnames
 *(.debug_sfnames)

.comment        0x00000000      0x6a3
 .comment       0x00000000       0x12 /usr/local/libmaple/arm/bin/../lib/gcc/arm-none-eabi/4.4.1/thumb2/crtbegin.o
 .comment       0x00000012       0x12 build//usr/local/libmaple/libmaple/adc.o
 .comment       0x00000024       0x12 build//usr/local/libmaple/libmaple/bkp.o
 .comment       0x00000036       0x12 build//usr/local/libmaple/libmaple/dac.o
 .comment       0x00000048       0x12 build//usr/local/libmaple/libmaple/dma.o
 .comment       0x0000005a       0x12 build//usr/local/libmaple/libmaple/exti.o
 .comment       0x0000006c       0x12 build//usr/local/libmaple/libmaple/flash.o
 .comment       0x0000007e       0x12 build//usr/local/libmaple/libmaple/fsmc.o
 .comment       0x00000090       0x12 build//usr/local/libmaple/libmaple/gpio.o
 .comment       0x000000a2       0x12 build//usr/local/libmaple/libmaple/iwdg.o
 .comment       0x000000b4       0x12 build//usr/local/libmaple/libmaple/nvic.o
 .comment       0x000000c6       0x12 build//usr/local/libmaple/libmaple/pwr.o
 .comment       0x000000d8       0x12 build//usr/local/libmaple/libmaple/i2c.o
 .comment       0x000000ea       0x12 build//usr/local/libmaple/libmaple/rcc.o
 .comment       0x000000fc       0x12 build//usr/local/libmaple/libmaple/spi.o
 .comment       0x0000010e       0x12 build//usr/local/libmaple/libmaple/syscalls.o
 .comment       0x00000120       0x12 build//usr/local/libmaple/libmaple/systick.o
 .comment       0x00000132       0x12 build//usr/local/libmaple/libmaple/timer.o
 .comment       0x00000144       0x12 build//usr/local/libmaple/libmaple/usart.o
 .comment       0x00000156       0x12 build//usr/local/libmaple/libmaple/util.o
 .comment       0x00000168       0x12 build//usr/local/libmaple/libmaple/usb/descriptors.o
 .comment       0x0000017a       0x12 build//usr/local/libmaple/libmaple/usb/usb.o
 .comment       0x0000018c       0x12 build//usr/local/libmaple/libmaple/usb/usb_callbacks.o
 .comment       0x0000019e       0x12 build//usr/local/libmaple/libmaple/usb/usb_hardware.o
 .comment       0x000001b0       0x12 build//usr/local/libmaple/libmaple/usb/usb_lib/usb_core.o
 .comment       0x000001c2       0x12 build//usr/local/libmaple/libmaple/usb/usb_lib/usb_init.o
 .comment       0x000001d4       0x12 build//usr/local/libmaple/libmaple/usb/usb_lib/usb_int.o
 .comment       0x000001e6       0x12 build//usr/local/libmaple/libmaple/usb/usb_lib/usb_mem.o
 .comment       0x000001f8       0x12 build//usr/local/libmaple/libmaple/usb/usb_lib/usb_regs.o
 .comment       0x0000020a       0x12 build//usr/local/libmaple/wirish/wirish_math.o
 .comment       0x0000021c       0x12 build//usr/local/libmaple/wirish/Print.o
 .comment       0x0000022e       0x12 build//usr/local/libmaple/wirish/boards.o
 .comment       0x00000240       0x12 build//usr/local/libmaple/wirish/boards/maple.o
 .comment       0x00000252       0x12 build//usr/local/libmaple/wirish/boards/maple_mini.o
 .comment       0x00000264       0x12 build//usr/local/libmaple/wirish/boards/maple_native.o
 .comment       0x00000276       0x12 build//usr/local/libmaple/wirish/boards/maple_RET6.o
 .comment       0x00000288       0x12 build//usr/local/libmaple/wirish/comm/HardwareSerial.o
 .comment       0x0000029a       0x12 build//usr/local/libmaple/wirish/comm/HardwareSPI.o
 .comment       0x000002ac       0x12 build//usr/local/libmaple/wirish/HardwareTimer.o
 .comment       0x000002be       0x12 build//usr/local/libmaple/wirish/usb_serial.o
 .comment       0x000002d0       0x12 build//usr/local/libmaple/wirish/cxxabi-compat.o
 .comment       0x000002e2       0x12 build//usr/local/libmaple/wirish/wirish_shift.o
 .comment       0x000002f4       0x12 build//usr/local/libmaple/wirish/wirish_analog.o
 .comment       0x00000306       0x12 build//usr/local/libmaple/wirish/wirish_time.o
 .comment       0x00000318       0x12 build//usr/local/libmaple/wirish/pwm.o
 .comment       0x0000032a       0x12 build//usr/local/libmaple/wirish/ext_interrupts.o
 .comment       0x0000033c       0x12 build//usr/local/libmaple/wirish/wirish_digital.o
 .comment       0x0000034e       0x12 build//usr/local/libmaple/libraries/Servo/Servo.o
 .comment       0x00000360       0x12 build//usr/local/libmaple/libraries/LiquidCrystal/LiquidCrystal.o
 .comment       0x00000372       0x12 build//usr/local/libmaple/libraries/Wire/Wire.o
 .comment       0x00000384       0x12 build//usr/local/libmaple/libraries/FreeRTOS/utility/croutine.o
 .comment       0x00000396       0x12 build//usr/local/libmaple/libraries/FreeRTOS/utility/heap_2.o
 .comment       0x000003a8       0x12 build//usr/local/libmaple/libraries/FreeRTOS/utility/list.o
 .comment       0x000003ba       0x12 build//usr/local/libmaple/libraries/FreeRTOS/utility/port.o
 .comment       0x000003cc       0x12 build//usr/local/libmaple/libraries/FreeRTOS/utility/queue.o
 .comment       0x000003de       0x12 build//usr/local/libmaple/libraries/FreeRTOS/utility/timers.o
 .comment       0x000003f0       0x12 build//usr/local/libmaple/libraries/FreeRTOS/utility/tasks.o
 .comment       0x00000402       0x12 build//usr/local/libmaple/libraries/FreeRTOS/MapleFreeRTOS.o
 .comment       0x00000414       0x12 build/main.o
 .comment       0x00000426       0x12 /usr/local/libmaple/arm/bin/../lib/gcc/arm-none-eabi/4.4.1/thumb2/libgcc.a(_fixdfdi.o)
 .comment       0x00000438       0x12 /usr/local/libmaple/arm/bin/../lib/gcc/arm-none-eabi/4.4.1/thumb2/libgcc.a(_fixunsdfdi.o)
 .comment       0x0000044a       0x12 /usr/local/libmaple/arm/bin/../lib/gcc/arm-none-eabi/4.4.1/thumb2/libgcc.a(bpabi.o)
 .comment       0x0000045c       0x12 /usr/local/libmaple/arm/bin/../lib/gcc/arm-none-eabi/4.4.1/thumb2/libgcc.a(_divdi3.o)
 .comment       0x0000046e       0x12 /usr/local/libmaple/arm/bin/../lib/gcc/arm-none-eabi/4.4.1/thumb2/libgcc.a(_udivdi3.o)
 .comment       0x00000480       0x12 /usr/local/libmaple/arm/bin/../lib/gcc/arm-none-eabi/4.4.1/../../../../arm-none-eabi/lib/thumb2/libc.a(lib_a-memcmp.o)
 .comment       0x00000492       0x12 /usr/local/libmaple/arm/bin/../lib/gcc/arm-none-eabi/4.4.1/../../../../arm-none-eabi/lib/thumb2/libc.a(lib_a-memcpy.o)
 .comment       0x000004a4       0x12 /usr/local/libmaple/arm/bin/../lib/gcc/arm-none-eabi/4.4.1/../../../../arm-none-eabi/lib/thumb2/libc.a(lib_a-memset.o)
 .comment       0x000004b6       0x12 /usr/local/libmaple/arm/bin/../lib/gcc/arm-none-eabi/4.4.1/../../../../arm-none-eabi/lib/thumb2/libc.a(lib_a-rand.o)
 .comment       0x000004c8       0x12 /usr/local/libmaple/arm/bin/../lib/gcc/arm-none-eabi/4.4.1/../../../../arm-none-eabi/lib/thumb2/libc.a(lib_a-sprintf.o)
 .comment       0x000004da       0x12 /usr/local/libmaple/arm/bin/../lib/gcc/arm-none-eabi/4.4.1/../../../../arm-none-eabi/lib/thumb2/libc.a(lib_a-strcat.o)
 .comment       0x000004ec       0x12 /usr/local/libmaple/arm/bin/../lib/gcc/arm-none-eabi/4.4.1/../../../../arm-none-eabi/lib/thumb2/libc.a(lib_a-strlen.o)
 .comment       0x000004fe       0x12 /usr/local/libmaple/arm/bin/../lib/gcc/arm-none-eabi/4.4.1/../../../../arm-none-eabi/lib/thumb2/libc.a(lib_a-strncpy.o)
 .comment       0x00000510       0x12 /usr/local/libmaple/arm/bin/../lib/gcc/arm-none-eabi/4.4.1/../../../../arm-none-eabi/lib/thumb2/libc.a(lib_a-svfprintf.o)
 .comment       0x00000522       0x12 /usr/local/libmaple/arm/bin/../lib/gcc/arm-none-eabi/4.4.1/../../../../arm-none-eabi/lib/thumb2/libc.a(lib_a-dtoa.o)
 .comment       0x00000534       0x12 /usr/local/libmaple/arm/bin/../lib/gcc/arm-none-eabi/4.4.1/../../../../arm-none-eabi/lib/thumb2/libc.a(lib_a-freer.o)
 .comment       0x00000546       0x12 /usr/local/libmaple/arm/bin/../lib/gcc/arm-none-eabi/4.4.1/../../../../arm-none-eabi/lib/thumb2/libc.a(lib_a-impure.o)
 .comment       0x00000558       0x12 /usr/local/libmaple/arm/bin/../lib/gcc/arm-none-eabi/4.4.1/../../../../arm-none-eabi/lib/thumb2/libc.a(lib_a-locale.o)
 .comment       0x0000056a       0x12 /usr/local/libmaple/arm/bin/../lib/gcc/arm-none-eabi/4.4.1/../../../../arm-none-eabi/lib/thumb2/libc.a(lib_a-malloc.o)
 .comment       0x0000057c       0x12 /usr/local/libmaple/arm/bin/../lib/gcc/arm-none-eabi/4.4.1/../../../../arm-none-eabi/lib/thumb2/libc.a(lib_a-mallocr.o)
 .comment       0x0000058e       0x12 /usr/local/libmaple/arm/bin/../lib/gcc/arm-none-eabi/4.4.1/../../../../arm-none-eabi/lib/thumb2/libc.a(lib_a-memchr.o)
 .comment       0x000005a0       0x12 /usr/local/libmaple/arm/bin/../lib/gcc/arm-none-eabi/4.4.1/../../../../arm-none-eabi/lib/thumb2/libc.a(lib_a-memmove.o)
 .comment       0x000005b2       0x12 /usr/local/libmaple/arm/bin/../lib/gcc/arm-none-eabi/4.4.1/../../../../arm-none-eabi/lib/thumb2/libc.a(lib_a-mlock.o)
 .comment       0x000005c4       0x12 /usr/local/libmaple/arm/bin/../lib/gcc/arm-none-eabi/4.4.1/../../../../arm-none-eabi/lib/thumb2/libc.a(lib_a-mprec.o)
 .comment       0x000005d6       0x12 /usr/local/libmaple/arm/bin/../lib/gcc/arm-none-eabi/4.4.1/../../../../arm-none-eabi/lib/thumb2/libc.a(lib_a-reallocr.o)
 .comment       0x000005e8       0x12 /usr/local/libmaple/arm/bin/../lib/gcc/arm-none-eabi/4.4.1/../../../../arm-none-eabi/lib/thumb2/libc.a(lib_a-s_isinfd.o)
 .comment       0x000005fa       0x12 /usr/local/libmaple/arm/bin/../lib/gcc/arm-none-eabi/4.4.1/../../../../arm-none-eabi/lib/thumb2/libc.a(lib_a-s_isnand.o)
 .comment       0x0000060c       0x12 /usr/local/libmaple/arm/bin/../lib/gcc/arm-none-eabi/4.4.1/../../../../arm-none-eabi/lib/thumb2/libc.a(lib_a-sbrkr.o)
 .comment       0x0000061e       0x12 /usr/local/libmaple/arm/bin/../lib/gcc/arm-none-eabi/4.4.1/../../../../arm-none-eabi/lib/thumb2/libc.a(lib_a-strcmp.o)
 .comment       0x00000630       0x12 /usr/local/libmaple/arm/bin/../lib/gcc/arm-none-eabi/4.4.1/../../../../arm-none-eabi/lib/thumb2/libc.a(lib_a-callocr.o)
 .comment       0x00000642       0x12 /usr/local/libmaple/arm/bin/../lib/gcc/arm-none-eabi/4.4.1/../../../../arm-none-eabi/lib/thumb2/libc.a(lib_a-reent.o)
 .comment       0x00000654       0x12 /usr/local/libmaple/arm/bin/../lib/gcc/arm-none-eabi/4.4.1/thumb2/crtend.o
 .comment       0x00000666       0x2b /usr/local/libmaple/support/ld/libcs3_stm32_med_density.a(start_c.o)
 .comment       0x00000691       0x12 /usr/local/libmaple/arm/bin/../lib/gcc/arm-none-eabi/4.4.1/../../../../arm-none-eabi/lib/thumb2/libc.a(lib_a-init.o)

.debug_aranges  0x00000000     0x1928
 *(.debug_aranges)
 .debug_aranges
                0x00000000       0x28 /usr/local/libmaple/arm/bin/../lib/gcc/arm-none-eabi/4.4.1/thumb2/crti.o
 .debug_aranges
                0x00000028       0x50 build//usr/local/libmaple/libmaple/adc.o
 .debug_aranges
                0x00000078       0x50 build//usr/local/libmaple/libmaple/bkp.o
 .debug_aranges
                0x000000c8       0xd0 build//usr/local/libmaple/libmaple/dma.o
 .debug_aranges
                0x00000198       0x90 build//usr/local/libmaple/libmaple/exti.o
 .debug_aranges
                0x00000228       0x28 build//usr/local/libmaple/libmaple/flash.o
 .debug_aranges
                0x00000250       0x48 build//usr/local/libmaple/libmaple/gpio.o
 .debug_aranges
                0x00000298       0x28 build//usr/local/libmaple/libmaple/iwdg.o
 .debug_aranges
                0x000002c0       0x30 build//usr/local/libmaple/libmaple/nvic.o
 .debug_aranges
                0x000002f0       0x20 build//usr/local/libmaple/libmaple/pwr.o
 .debug_aranges
                0x00000310       0xb8 build//usr/local/libmaple/libmaple/i2c.o
 .debug_aranges
                0x000003c8       0x48 build//usr/local/libmaple/libmaple/rcc.o
 .debug_aranges
                0x00000410       0x88 build//usr/local/libmaple/libmaple/spi.o
 .debug_aranges
                0x00000498       0x80 build//usr/local/libmaple/libmaple/syscalls.o
 .debug_aranges
                0x00000518       0x40 build//usr/local/libmaple/libmaple/systick.o
 .debug_aranges
                0x00000558       0xc0 build//usr/local/libmaple/libmaple/timer.o
 .debug_aranges
                0x00000618       0x70 build//usr/local/libmaple/libmaple/usart.o
 .debug_aranges
                0x00000688       0x58 build//usr/local/libmaple/libmaple/util.o
 .debug_aranges
                0x000006e0       0xc8 build//usr/local/libmaple/libmaple/usb/usb.o
 .debug_aranges
                0x000007a8       0xa0 build//usr/local/libmaple/libmaple/usb/usb_callbacks.o
 .debug_aranges
                0x00000848       0x30 build//usr/local/libmaple/libmaple/usb/usb_hardware.o
 .debug_aranges
                0x00000878       0x98 build//usr/local/libmaple/libmaple/usb/usb_lib/usb_core.o
 .debug_aranges
                0x00000910       0x20 build//usr/local/libmaple/libmaple/usb/usb_lib/usb_init.o
 .debug_aranges
                0x00000930       0x28 build//usr/local/libmaple/libmaple/usb/usb_lib/usb_int.o
 .debug_aranges
                0x00000958       0x28 build//usr/local/libmaple/libmaple/usb/usb_lib/usb_mem.o
 .debug_aranges
                0x00000980      0x1f0 build//usr/local/libmaple/libmaple/usb/usb_lib/usb_regs.o
 .debug_aranges
                0x00000b70       0x30 build//usr/local/libmaple/wirish/wirish_math.o
 .debug_aranges
                0x00000ba0       0xe0 build//usr/local/libmaple/wirish/Print.o
 .debug_aranges
                0x00000c80       0x40 build//usr/local/libmaple/wirish/boards.o
 .debug_aranges
                0x00000cc0       0x28 build//usr/local/libmaple/wirish/boards/maple.o
 .debug_aranges
                0x00000ce8       0x68 build//usr/local/libmaple/wirish/comm/HardwareSerial.o
 .debug_aranges
                0x00000d50       0xb0 build//usr/local/libmaple/wirish/comm/HardwareSPI.o
 .debug_aranges
                0x00000e00       0xb0 build//usr/local/libmaple/wirish/HardwareTimer.o
 .debug_aranges
                0x00000eb0       0x98 build//usr/local/libmaple/wirish/usb_serial.o
 .debug_aranges
                0x00000f48       0x20 build//usr/local/libmaple/wirish/cxxabi-compat.o
 .debug_aranges
                0x00000f68       0x20 build//usr/local/libmaple/wirish/wirish_shift.o
 .debug_aranges
                0x00000f88       0x20 build//usr/local/libmaple/wirish/wirish_analog.o
 .debug_aranges
                0x00000fa8       0x28 build//usr/local/libmaple/wirish/wirish_time.o
 .debug_aranges
                0x00000fd0       0x20 build//usr/local/libmaple/wirish/pwm.o
 .debug_aranges
                0x00000ff0       0x28 build//usr/local/libmaple/wirish/ext_interrupts.o
 .debug_aranges
                0x00001018       0x48 build//usr/local/libmaple/wirish/wirish_digital.o
 .debug_aranges
                0x00001060       0x78 build//usr/local/libmaple/libraries/Servo/Servo.o
 .debug_aranges
                0x000010d8      0x120 build//usr/local/libmaple/libraries/LiquidCrystal/LiquidCrystal.o
 .debug_aranges
                0x000011f8       0xe8 build//usr/local/libmaple/libraries/Wire/Wire.o
 .debug_aranges
                0x000012e0       0x38 build//usr/local/libmaple/libraries/FreeRTOS/utility/croutine.o
 .debug_aranges
                0x00001318       0x38 build//usr/local/libmaple/libraries/FreeRTOS/utility/heap_2.o
 .debug_aranges
                0x00001350       0x40 build//usr/local/libmaple/libraries/FreeRTOS/utility/list.o
 .debug_aranges
                0x00001390       0x68 build//usr/local/libmaple/libraries/FreeRTOS/utility/port.o
 .debug_aranges
                0x000013f8       0xa0 build//usr/local/libmaple/libraries/FreeRTOS/utility/queue.o
 .debug_aranges
                0x00001498      0x120 build//usr/local/libmaple/libraries/FreeRTOS/utility/tasks.o
 .debug_aranges
                0x000015b8       0x20 build//usr/local/libmaple/libraries/FreeRTOS/MapleFreeRTOS.o
 .debug_aranges
                0x000015d8      0x128 build/main.o
 .debug_aranges
                0x00001700       0x20 /usr/local/libmaple/arm/bin/../lib/gcc/arm-none-eabi/4.4.1/thumb2/libgcc.a(_arm_addsubdf3.o)
 .debug_aranges
                0x00001720       0x20 /usr/local/libmaple/arm/bin/../lib/gcc/arm-none-eabi/4.4.1/thumb2/libgcc.a(_arm_muldivdf3.o)
 .debug_aranges
                0x00001740       0x20 /usr/local/libmaple/arm/bin/../lib/gcc/arm-none-eabi/4.4.1/thumb2/libgcc.a(_arm_cmpdf2.o)
 .debug_aranges
                0x00001760       0x20 /usr/local/libmaple/arm/bin/../lib/gcc/arm-none-eabi/4.4.1/thumb2/libgcc.a(_arm_fixdfsi.o)
 .debug_aranges
                0x00001780       0x20 /usr/local/libmaple/arm/bin/../lib/gcc/arm-none-eabi/4.4.1/thumb2/libgcc.a(_arm_addsubsf3.o)
 .debug_aranges
                0x000017a0       0x20 /usr/local/libmaple/arm/bin/../lib/gcc/arm-none-eabi/4.4.1/thumb2/libgcc.a(_arm_muldivsf3.o)
 .debug_aranges
                0x000017c0       0x20 /usr/local/libmaple/arm/bin/../lib/gcc/arm-none-eabi/4.4.1/thumb2/libgcc.a(_aeabi_uldivmod.o)
 .debug_aranges
                0x000017e0       0x20 /usr/local/libmaple/arm/bin/../lib/gcc/arm-none-eabi/4.4.1/thumb2/libgcc.a(_fixdfdi.o)
 .debug_aranges
                0x00001800       0x20 /usr/local/libmaple/arm/bin/../lib/gcc/arm-none-eabi/4.4.1/thumb2/libgcc.a(_fixunsdfdi.o)
 .debug_aranges
                0x00001820       0x20 /usr/local/libmaple/arm/bin/../lib/gcc/arm-none-eabi/4.4.1/thumb2/libgcc.a(bpabi.o)
 .debug_aranges
                0x00001840       0x20 /usr/local/libmaple/arm/bin/../lib/gcc/arm-none-eabi/4.4.1/thumb2/libgcc.a(_dvmd_tls.o)
 .debug_aranges
                0x00001860       0x20 /usr/local/libmaple/arm/bin/../lib/gcc/arm-none-eabi/4.4.1/thumb2/libgcc.a(_arm_fixunsdfsi.o)
 .debug_aranges
                0x00001880       0x20 /usr/local/libmaple/arm/bin/../lib/gcc/arm-none-eabi/4.4.1/thumb2/libgcc.a(_divdi3.o)
 .debug_aranges
                0x000018a0       0x20 /usr/local/libmaple/arm/bin/../lib/gcc/arm-none-eabi/4.4.1/thumb2/libgcc.a(_udivdi3.o)
 .debug_aranges
                0x000018c0       0x20 /usr/local/libmaple/arm/bin/../lib/gcc/arm-none-eabi/4.4.1/thumb2/libgcc.a(_udivsi3.o)
 .debug_aranges
                0x000018e0       0x20 /usr/local/libmaple/arm/bin/../lib/gcc/arm-none-eabi/4.4.1/thumb2/libgcc.a(_divsi3.o)
 .debug_aranges
                0x00001900       0x28 /usr/local/libmaple/arm/bin/../lib/gcc/arm-none-eabi/4.4.1/thumb2/crtn.o

.debug_pubnames
                0x00000000     0x32b4
 *(.debug_pubnames)
 .debug_pubnames
                0x00000000       0x8b build//usr/local/libmaple/libmaple/adc.o
 .debug_pubnames
                0x0000008b       0x77 build//usr/local/libmaple/libmaple/bkp.o
 .debug_pubnames
                0x00000102      0x1a7 build//usr/local/libmaple/libmaple/dma.o
 .debug_pubnames
                0x000002a9       0xbc build//usr/local/libmaple/libmaple/exti.o
 .debug_pubnames
                0x00000365       0x42 build//usr/local/libmaple/libmaple/flash.o
 .debug_pubnames
                0x000003a7       0xc6 build//usr/local/libmaple/libmaple/gpio.o
 .debug_pubnames
                0x0000046d       0x2e build//usr/local/libmaple/libmaple/iwdg.o
 .debug_pubnames
                0x0000049b       0x54 build//usr/local/libmaple/libmaple/nvic.o
 .debug_pubnames
                0x000004ef       0x1f build//usr/local/libmaple/libmaple/pwr.o
 .debug_pubnames
                0x0000050e       0xb5 build//usr/local/libmaple/libmaple/i2c.o
 .debug_pubnames
                0x000005c3       0x6e build//usr/local/libmaple/libmaple/rcc.o
 .debug_pubnames
                0x00000631      0x117 build//usr/local/libmaple/libmaple/spi.o
 .debug_pubnames
                0x00000748       0x9b build//usr/local/libmaple/libmaple/syscalls.o
 .debug_pubnames
                0x000007e3       0x92 build//usr/local/libmaple/libmaple/systick.o
 .debug_pubnames
                0x00000875      0x135 build//usr/local/libmaple/libmaple/timer.o
 .debug_pubnames
                0x000009aa       0xe1 build//usr/local/libmaple/libmaple/usart.o
 .debug_pubnames
                0x00000a8b       0x32 build//usr/local/libmaple/libmaple/util.o
 .debug_pubnames
                0x00000abd       0xac build//usr/local/libmaple/libmaple/usb/descriptors.o
 .debug_pubnames
                0x00000b69      0x20f build//usr/local/libmaple/libmaple/usb/usb.o
 .debug_pubnames
                0x00000d78      0x24c build//usr/local/libmaple/libmaple/usb/usb_callbacks.o
 .debug_pubnames
                0x00000fc4       0x4d build//usr/local/libmaple/libmaple/usb/usb_hardware.o
 .debug_pubnames
                0x00001011      0x1a5 build//usr/local/libmaple/libmaple/usb/usb_lib/usb_core.o
 .debug_pubnames
                0x000011b6       0x98 build//usr/local/libmaple/libmaple/usb/usb_lib/usb_init.o
 .debug_pubnames
                0x0000124e       0x46 build//usr/local/libmaple/libmaple/usb/usb_lib/usb_int.o
 .debug_pubnames
                0x00001294       0x42 build//usr/local/libmaple/libmaple/usb/usb_lib/usb_mem.o
 .debug_pubnames
                0x000012d6      0x419 build//usr/local/libmaple/libmaple/usb/usb_lib/usb_regs.o
 .debug_pubnames
                0x000016ef       0x37 build//usr/local/libmaple/wirish/wirish_math.o
 .debug_pubnames
                0x00001726      0x1dc build//usr/local/libmaple/wirish/Print.o
 .debug_pubnames
                0x00001902       0x2c build//usr/local/libmaple/wirish/boards.o
 .debug_pubnames
                0x0000192e       0x60 build//usr/local/libmaple/wirish/boards/maple.o
 .debug_pubnames
                0x0000198e      0x12a build//usr/local/libmaple/wirish/comm/HardwareSerial.o
 .debug_pubnames
                0x00001ab8      0x17d build//usr/local/libmaple/wirish/comm/HardwareSPI.o
 .debug_pubnames
                0x00001c35      0x248 build//usr/local/libmaple/wirish/HardwareTimer.o
 .debug_pubnames
                0x00001e7d      0x169 build//usr/local/libmaple/wirish/usb_serial.o
 .debug_pubnames
                0x00001fe6       0x29 build//usr/local/libmaple/wirish/cxxabi-compat.o
 .debug_pubnames
                0x0000200f       0x1f build//usr/local/libmaple/wirish/wirish_shift.o
 .debug_pubnames
                0x0000202e       0x21 build//usr/local/libmaple/wirish/wirish_analog.o
 .debug_pubnames
                0x0000204f       0x32 build//usr/local/libmaple/wirish/wirish_time.o
 .debug_pubnames
                0x00002081       0x1f build//usr/local/libmaple/wirish/pwm.o
 .debug_pubnames
                0x000020a0       0x3a build//usr/local/libmaple/wirish/ext_interrupts.o
 .debug_pubnames
                0x000020da       0x78 build//usr/local/libmaple/wirish/wirish_digital.o
 .debug_pubnames
                0x00002152       0xdd build//usr/local/libmaple/libraries/Servo/Servo.o
 .debug_pubnames
                0x0000222f      0x3d8 build//usr/local/libmaple/libraries/LiquidCrystal/LiquidCrystal.o
 .debug_pubnames
                0x00002607      0x230 build//usr/local/libmaple/libraries/Wire/Wire.o
 .debug_pubnames
                0x00002837       0x96 build//usr/local/libmaple/libraries/FreeRTOS/utility/croutine.o
 .debug_pubnames
                0x000028cd       0x64 build//usr/local/libmaple/libraries/FreeRTOS/utility/heap_2.o
 .debug_pubnames
                0x00002931       0x71 build//usr/local/libmaple/libraries/FreeRTOS/utility/list.o
 .debug_pubnames
                0x000029a2      0x101 build//usr/local/libmaple/libraries/FreeRTOS/utility/port.o
 .debug_pubnames
                0x00002aa3      0x183 build//usr/local/libmaple/libraries/FreeRTOS/utility/queue.o
 .debug_pubnames
                0x00002c26      0x2c0 build//usr/local/libmaple/libraries/FreeRTOS/utility/tasks.o
 .debug_pubnames
                0x00002ee6       0x34 build//usr/local/libmaple/libraries/FreeRTOS/MapleFreeRTOS.o
 .debug_pubnames
                0x00002f1a      0x2d3 build/main.o
 .debug_pubnames
                0x000031ed       0x20 /usr/local/libmaple/arm/bin/../lib/gcc/arm-none-eabi/4.4.1/thumb2/libgcc.a(_fixdfdi.o)
 .debug_pubnames
                0x0000320d       0x23 /usr/local/libmaple/arm/bin/../lib/gcc/arm-none-eabi/4.4.1/thumb2/libgcc.a(_fixunsdfdi.o)
 .debug_pubnames
                0x00003230       0x45 /usr/local/libmaple/arm/bin/../lib/gcc/arm-none-eabi/4.4.1/thumb2/libgcc.a(bpabi.o)
 .debug_pubnames
                0x00003275       0x1f /usr/local/libmaple/arm/bin/../lib/gcc/arm-none-eabi/4.4.1/thumb2/libgcc.a(_divdi3.o)
 .debug_pubnames
                0x00003294       0x20 /usr/local/libmaple/arm/bin/../lib/gcc/arm-none-eabi/4.4.1/thumb2/libgcc.a(_udivdi3.o)

.debug_info     0x00000000    0x1d240
 *(.debug_info .gnu.linkonce.wi.*)
 .debug_info    0x00000000       0x8f /usr/local/libmaple/arm/bin/../lib/gcc/arm-none-eabi/4.4.1/thumb2/crti.o
 .debug_info    0x0000008f      0x5fb build//usr/local/libmaple/libmaple/adc.o
 .debug_info    0x0000068a      0x406 build//usr/local/libmaple/libmaple/bkp.o
 .debug_info    0x00000a90       0x5e build//usr/local/libmaple/libmaple/dac.o
 .debug_info    0x00000aee      0xead build//usr/local/libmaple/libmaple/dma.o
 .debug_info    0x0000199b      0x846 build//usr/local/libmaple/libmaple/exti.o
 .debug_info    0x000021e1      0x1a4 build//usr/local/libmaple/libmaple/flash.o
 .debug_info    0x00002385       0x5e build//usr/local/libmaple/libmaple/fsmc.o
 .debug_info    0x000023e3      0x612 build//usr/local/libmaple/libmaple/gpio.o
 .debug_info    0x000029f5      0x146 build//usr/local/libmaple/libmaple/iwdg.o
 .debug_info    0x00002b3b      0x539 build//usr/local/libmaple/libmaple/nvic.o
 .debug_info    0x00003074      0x11b build//usr/local/libmaple/libmaple/pwr.o
 .debug_info    0x0000318f      0xed9 build//usr/local/libmaple/libmaple/i2c.o
 .debug_info    0x00004068      0x65c build//usr/local/libmaple/libmaple/rcc.o
 .debug_info    0x000046c4      0xaa1 build//usr/local/libmaple/libmaple/spi.o
 .debug_info    0x00005165      0x53b build//usr/local/libmaple/libmaple/syscalls.o
 .debug_info    0x000056a0      0x167 build//usr/local/libmaple/libmaple/systick.o
 .debug_info    0x00005807     0x116b build//usr/local/libmaple/libmaple/timer.o
 .debug_info    0x00006972      0xab7 build//usr/local/libmaple/libmaple/usart.o
 .debug_info    0x00007429      0xb4b build//usr/local/libmaple/libmaple/util.o
 .debug_info    0x00007f74      0x614 build//usr/local/libmaple/libmaple/usb/descriptors.o
 .debug_info    0x00008588      0xc3c build//usr/local/libmaple/libmaple/usb/usb.o
 .debug_info    0x000091c4      0xde0 build//usr/local/libmaple/libmaple/usb/usb_callbacks.o
 .debug_info    0x00009fa4      0x3d7 build//usr/local/libmaple/libmaple/usb/usb_hardware.o
 .debug_info    0x0000a37b      0xbfd build//usr/local/libmaple/libmaple/usb/usb_lib/usb_core.o
 .debug_info    0x0000af78      0x454 build//usr/local/libmaple/libmaple/usb/usb_lib/usb_init.o
 .debug_info    0x0000b3cc      0x1af build//usr/local/libmaple/libmaple/usb/usb_lib/usb_int.o
 .debug_info    0x0000b57b      0x16d build//usr/local/libmaple/libmaple/usb/usb_lib/usb_mem.o
 .debug_info    0x0000b6e8      0xcc3 build//usr/local/libmaple/libmaple/usb/usb_lib/usb_regs.o
 .debug_info    0x0000c3ab      0x135 build//usr/local/libmaple/wirish/wirish_math.o
 .debug_info    0x0000c4e0      0xb0c build//usr/local/libmaple/wirish/Print.o
 .debug_info    0x0000cfec      0xe38 build//usr/local/libmaple/wirish/boards.o
 .debug_info    0x0000de24      0x982 build//usr/local/libmaple/wirish/boards/maple.o
 .debug_info    0x0000e7a6       0x61 build//usr/local/libmaple/wirish/boards/maple_mini.o
 .debug_info    0x0000e807       0x61 build//usr/local/libmaple/wirish/boards/maple_native.o
 .debug_info    0x0000e868       0x61 build//usr/local/libmaple/wirish/boards/maple_RET6.o
 .debug_info    0x0000e8c9     0x11d5 build//usr/local/libmaple/wirish/comm/HardwareSerial.o
 .debug_info    0x0000fa9e     0x155a build//usr/local/libmaple/wirish/comm/HardwareSPI.o
 .debug_info    0x00010ff8     0x1293 build//usr/local/libmaple/wirish/HardwareTimer.o
 .debug_info    0x0001228b      0x6f9 build//usr/local/libmaple/wirish/usb_serial.o
 .debug_info    0x00012984       0x3c build//usr/local/libmaple/wirish/cxxabi-compat.o
 .debug_info    0x000129c0      0x125 build//usr/local/libmaple/wirish/wirish_shift.o
 .debug_info    0x00012ae5      0x8af build//usr/local/libmaple/wirish/wirish_analog.o
 .debug_info    0x00013394      0x122 build//usr/local/libmaple/wirish/wirish_time.o
 .debug_info    0x000134b6      0x8f9 build//usr/local/libmaple/wirish/pwm.o
 .debug_info    0x00013daf      0x9c2 build//usr/local/libmaple/wirish/ext_interrupts.o
 .debug_info    0x00014771      0xbb1 build//usr/local/libmaple/wirish/wirish_digital.o
 .debug_info    0x00015322      0xf58 build//usr/local/libmaple/libraries/Servo/Servo.o
 .debug_info    0x0001627a     0x1096 build//usr/local/libmaple/libraries/LiquidCrystal/LiquidCrystal.o
 .debug_info    0x00017310      0xc00 build//usr/local/libmaple/libraries/Wire/Wire.o
 .debug_info    0x00017f10      0x4e0 build//usr/local/libmaple/libraries/FreeRTOS/utility/croutine.o
 .debug_info    0x000183f0      0x2b2 build//usr/local/libmaple/libraries/FreeRTOS/utility/heap_2.o
 .debug_info    0x000186a2      0x2a4 build//usr/local/libmaple/libraries/FreeRTOS/utility/list.o
 .debug_info    0x00018946      0x1b2 build//usr/local/libmaple/libraries/FreeRTOS/utility/port.o
 .debug_info    0x00018af8      0x86f build//usr/local/libmaple/libraries/FreeRTOS/utility/queue.o
 .debug_info    0x00019367       0x53 build//usr/local/libmaple/libraries/FreeRTOS/utility/timers.o
 .debug_info    0x000193ba     0x1017 build//usr/local/libmaple/libraries/FreeRTOS/utility/tasks.o
 .debug_info    0x0001a3d1       0xf6 build//usr/local/libmaple/libraries/FreeRTOS/MapleFreeRTOS.o
 .debug_info    0x0001a4c7     0x1573 build/main.o
 .debug_info    0x0001ba3a       0xbf /usr/local/libmaple/arm/bin/../lib/gcc/arm-none-eabi/4.4.1/thumb2/libgcc.a(_arm_addsubdf3.o)
 .debug_info    0x0001baf9       0xbf /usr/local/libmaple/arm/bin/../lib/gcc/arm-none-eabi/4.4.1/thumb2/libgcc.a(_arm_muldivdf3.o)
 .debug_info    0x0001bbb8       0xbf /usr/local/libmaple/arm/bin/../lib/gcc/arm-none-eabi/4.4.1/thumb2/libgcc.a(_arm_cmpdf2.o)
 .debug_info    0x0001bc77       0xbf /usr/local/libmaple/arm/bin/../lib/gcc/arm-none-eabi/4.4.1/thumb2/libgcc.a(_arm_fixdfsi.o)
 .debug_info    0x0001bd36       0xbf /usr/local/libmaple/arm/bin/../lib/gcc/arm-none-eabi/4.4.1/thumb2/libgcc.a(_arm_addsubsf3.o)
 .debug_info    0x0001bdf5       0xbf /usr/local/libmaple/arm/bin/../lib/gcc/arm-none-eabi/4.4.1/thumb2/libgcc.a(_arm_muldivsf3.o)
 .debug_info    0x0001beb4       0xba /usr/local/libmaple/arm/bin/../lib/gcc/arm-none-eabi/4.4.1/thumb2/libgcc.a(_aeabi_uldivmod.o)
 .debug_info    0x0001bf6e       0xca /usr/local/libmaple/arm/bin/../lib/gcc/arm-none-eabi/4.4.1/thumb2/libgcc.a(_fixdfdi.o)
 .debug_info    0x0001c038       0xf4 /usr/local/libmaple/arm/bin/../lib/gcc/arm-none-eabi/4.4.1/thumb2/libgcc.a(_fixunsdfdi.o)
 .debug_info    0x0001c12c       0xe2 /usr/local/libmaple/arm/bin/../lib/gcc/arm-none-eabi/4.4.1/thumb2/libgcc.a(bpabi.o)
 .debug_info    0x0001c20e       0xc0 /usr/local/libmaple/arm/bin/../lib/gcc/arm-none-eabi/4.4.1/thumb2/libgcc.a(_dvmd_tls.o)
 .debug_info    0x0001c2ce       0xbf /usr/local/libmaple/arm/bin/../lib/gcc/arm-none-eabi/4.4.1/thumb2/libgcc.a(_arm_fixunsdfsi.o)
 .debug_info    0x0001c38d      0x665 /usr/local/libmaple/arm/bin/../lib/gcc/arm-none-eabi/4.4.1/thumb2/libgcc.a(_divdi3.o)
 .debug_info    0x0001c9f2      0x63f /usr/local/libmaple/arm/bin/../lib/gcc/arm-none-eabi/4.4.1/thumb2/libgcc.a(_udivdi3.o)
 .debug_info    0x0001d031       0xc0 /usr/local/libmaple/arm/bin/../lib/gcc/arm-none-eabi/4.4.1/thumb2/libgcc.a(_udivsi3.o)
 .debug_info    0x0001d0f1       0xc0 /usr/local/libmaple/arm/bin/../lib/gcc/arm-none-eabi/4.4.1/thumb2/libgcc.a(_divsi3.o)
 .debug_info    0x0001d1b1       0x8f /usr/local/libmaple/arm/bin/../lib/gcc/arm-none-eabi/4.4.1/thumb2/crtn.o

.debug_abbrev   0x00000000     0x6a0c
 *(.debug_abbrev)
 .debug_abbrev  0x00000000       0x12 /usr/local/libmaple/arm/bin/../lib/gcc/arm-none-eabi/4.4.1/thumb2/crti.o
 .debug_abbrev  0x00000012      0x229 build//usr/local/libmaple/libmaple/adc.o
 .debug_abbrev  0x0000023b      0x168 build//usr/local/libmaple/libmaple/bkp.o
 .debug_abbrev  0x000003a3       0x2a build//usr/local/libmaple/libmaple/dac.o
 .debug_abbrev  0x000003cd      0x355 build//usr/local/libmaple/libmaple/dma.o
 .debug_abbrev  0x00000722      0x234 build//usr/local/libmaple/libmaple/exti.o
 .debug_abbrev  0x00000956       0xf2 build//usr/local/libmaple/libmaple/flash.o
 .debug_abbrev  0x00000a48       0x2a build//usr/local/libmaple/libmaple/fsmc.o
 .debug_abbrev  0x00000a72      0x177 build//usr/local/libmaple/libmaple/gpio.o
 .debug_abbrev  0x00000be9       0xaf build//usr/local/libmaple/libmaple/iwdg.o
 .debug_abbrev  0x00000c98      0x111 build//usr/local/libmaple/libmaple/nvic.o
 .debug_abbrev  0x00000da9       0x59 build//usr/local/libmaple/libmaple/pwr.o
 .debug_abbrev  0x00000e02      0x3e8 build//usr/local/libmaple/libmaple/i2c.o
 .debug_abbrev  0x000011ea      0x1e3 build//usr/local/libmaple/libmaple/rcc.o
 .debug_abbrev  0x000013cd      0x274 build//usr/local/libmaple/libmaple/spi.o
 .debug_abbrev  0x00001641      0x1b6 build//usr/local/libmaple/libmaple/syscalls.o
 .debug_abbrev  0x000017f7       0xeb build//usr/local/libmaple/libmaple/systick.o
 .debug_abbrev  0x000018e2      0x390 build//usr/local/libmaple/libmaple/timer.o
 .debug_abbrev  0x00001c72      0x2d6 build//usr/local/libmaple/libmaple/usart.o
 .debug_abbrev  0x00001f48      0x2af build//usr/local/libmaple/libmaple/util.o
 .debug_abbrev  0x000021f7       0x86 build//usr/local/libmaple/libmaple/usb/descriptors.o
 .debug_abbrev  0x0000227d      0x315 build//usr/local/libmaple/libmaple/usb/usb.o
 .debug_abbrev  0x00002592      0x259 build//usr/local/libmaple/libmaple/usb/usb_callbacks.o
 .debug_abbrev  0x000027eb      0x134 build//usr/local/libmaple/libmaple/usb/usb_hardware.o
 .debug_abbrev  0x0000291f      0x317 build//usr/local/libmaple/libmaple/usb/usb_lib/usb_core.o
 .debug_abbrev  0x00002c36      0x102 build//usr/local/libmaple/libmaple/usb/usb_lib/usb_init.o
 .debug_abbrev  0x00002d38       0xcd build//usr/local/libmaple/libmaple/usb/usb_lib/usb_int.o
 .debug_abbrev  0x00002e05       0xb3 build//usr/local/libmaple/libmaple/usb/usb_lib/usb_mem.o
 .debug_abbrev  0x00002eb8      0x1d4 build//usr/local/libmaple/libmaple/usb/usb_lib/usb_regs.o
 .debug_abbrev  0x0000308c       0x88 build//usr/local/libmaple/wirish/wirish_math.o
 .debug_abbrev  0x00003114      0x1ff build//usr/local/libmaple/wirish/Print.o
 .debug_abbrev  0x00003313      0x2bb build//usr/local/libmaple/wirish/boards.o
 .debug_abbrev  0x000035ce      0x176 build//usr/local/libmaple/wirish/boards/maple.o
 .debug_abbrev  0x00003744       0x33 build//usr/local/libmaple/wirish/boards/maple_mini.o
 .debug_abbrev  0x00003777       0x33 build//usr/local/libmaple/wirish/boards/maple_native.o
 .debug_abbrev  0x000037aa       0x33 build//usr/local/libmaple/wirish/boards/maple_RET6.o
 .debug_abbrev  0x000037dd      0x3d1 build//usr/local/libmaple/wirish/comm/HardwareSerial.o
 .debug_abbrev  0x00003bae      0x35c build//usr/local/libmaple/wirish/comm/HardwareSPI.o
 .debug_abbrev  0x00003f0a      0x374 build//usr/local/libmaple/wirish/HardwareTimer.o
 .debug_abbrev  0x0000427e      0x2cc build//usr/local/libmaple/wirish/usb_serial.o
 .debug_abbrev  0x0000454a       0x29 build//usr/local/libmaple/wirish/cxxabi-compat.o
 .debug_abbrev  0x00004573       0xa8 build//usr/local/libmaple/wirish/wirish_shift.o
 .debug_abbrev  0x0000461b      0x142 build//usr/local/libmaple/wirish/wirish_analog.o
 .debug_abbrev  0x0000475d       0xe5 build//usr/local/libmaple/wirish/wirish_time.o
 .debug_abbrev  0x00004842      0x1a9 build//usr/local/libmaple/wirish/pwm.o
 .debug_abbrev  0x000049eb      0x1a8 build//usr/local/libmaple/wirish/ext_interrupts.o
 .debug_abbrev  0x00004b93      0x269 build//usr/local/libmaple/wirish/wirish_digital.o
 .debug_abbrev  0x00004dfc      0x375 build//usr/local/libmaple/libraries/Servo/Servo.o
 .debug_abbrev  0x00005171      0x2b2 build//usr/local/libmaple/libraries/LiquidCrystal/LiquidCrystal.o
 .debug_abbrev  0x00005423      0x2ce build//usr/local/libmaple/libraries/Wire/Wire.o
 .debug_abbrev  0x000056f1      0x1e0 build//usr/local/libmaple/libraries/FreeRTOS/utility/croutine.o
 .debug_abbrev  0x000058d1      0x197 build//usr/local/libmaple/libraries/FreeRTOS/utility/heap_2.o
 .debug_abbrev  0x00005a68       0xf0 build//usr/local/libmaple/libraries/FreeRTOS/utility/list.o
 .debug_abbrev  0x00005b58      0x110 build//usr/local/libmaple/libraries/FreeRTOS/utility/port.o
 .debug_abbrev  0x00005c68      0x1b6 build//usr/local/libmaple/libraries/FreeRTOS/utility/queue.o
 .debug_abbrev  0x00005e1e       0x33 build//usr/local/libmaple/libraries/FreeRTOS/utility/timers.o
 .debug_abbrev  0x00005e51      0x253 build//usr/local/libmaple/libraries/FreeRTOS/utility/tasks.o
 .debug_abbrev  0x000060a4       0x8e build//usr/local/libmaple/libraries/FreeRTOS/MapleFreeRTOS.o
 .debug_abbrev  0x00006132      0x3db build/main.o
 .debug_abbrev  0x0000650d       0x14 /usr/local/libmaple/arm/bin/../lib/gcc/arm-none-eabi/4.4.1/thumb2/libgcc.a(_arm_addsubdf3.o)
 .debug_abbrev  0x00006521       0x14 /usr/local/libmaple/arm/bin/../lib/gcc/arm-none-eabi/4.4.1/thumb2/libgcc.a(_arm_muldivdf3.o)
 .debug_abbrev  0x00006535       0x14 /usr/local/libmaple/arm/bin/../lib/gcc/arm-none-eabi/4.4.1/thumb2/libgcc.a(_arm_cmpdf2.o)
 .debug_abbrev  0x00006549       0x14 /usr/local/libmaple/arm/bin/../lib/gcc/arm-none-eabi/4.4.1/thumb2/libgcc.a(_arm_fixdfsi.o)
 .debug_abbrev  0x0000655d       0x14 /usr/local/libmaple/arm/bin/../lib/gcc/arm-none-eabi/4.4.1/thumb2/libgcc.a(_arm_addsubsf3.o)
 .debug_abbrev  0x00006571       0x14 /usr/local/libmaple/arm/bin/../lib/gcc/arm-none-eabi/4.4.1/thumb2/libgcc.a(_arm_muldivsf3.o)
 .debug_abbrev  0x00006585       0x14 /usr/local/libmaple/arm/bin/../lib/gcc/arm-none-eabi/4.4.1/thumb2/libgcc.a(_aeabi_uldivmod.o)
 .debug_abbrev  0x00006599       0x66 /usr/local/libmaple/arm/bin/../lib/gcc/arm-none-eabi/4.4.1/thumb2/libgcc.a(_fixdfdi.o)
 .debug_abbrev  0x000065ff       0x7c /usr/local/libmaple/arm/bin/../lib/gcc/arm-none-eabi/4.4.1/thumb2/libgcc.a(_fixunsdfdi.o)
 .debug_abbrev  0x0000667b       0x6c /usr/local/libmaple/arm/bin/../lib/gcc/arm-none-eabi/4.4.1/thumb2/libgcc.a(bpabi.o)
 .debug_abbrev  0x000066e7       0x14 /usr/local/libmaple/arm/bin/../lib/gcc/arm-none-eabi/4.4.1/thumb2/libgcc.a(_dvmd_tls.o)
 .debug_abbrev  0x000066fb       0x14 /usr/local/libmaple/arm/bin/../lib/gcc/arm-none-eabi/4.4.1/thumb2/libgcc.a(_arm_fixunsdfsi.o)
 .debug_abbrev  0x0000670f      0x169 /usr/local/libmaple/arm/bin/../lib/gcc/arm-none-eabi/4.4.1/thumb2/libgcc.a(_divdi3.o)
 .debug_abbrev  0x00006878      0x15a /usr/local/libmaple/arm/bin/../lib/gcc/arm-none-eabi/4.4.1/thumb2/libgcc.a(_udivdi3.o)
 .debug_abbrev  0x000069d2       0x14 /usr/local/libmaple/arm/bin/../lib/gcc/arm-none-eabi/4.4.1/thumb2/libgcc.a(_udivsi3.o)
 .debug_abbrev  0x000069e6       0x14 /usr/local/libmaple/arm/bin/../lib/gcc/arm-none-eabi/4.4.1/thumb2/libgcc.a(_divsi3.o)
 .debug_abbrev  0x000069fa       0x12 /usr/local/libmaple/arm/bin/../lib/gcc/arm-none-eabi/4.4.1/thumb2/crtn.o

.debug_line     0x00000000     0xb4fe
 *(.debug_line)
 .debug_line    0x00000000       0x6f /usr/local/libmaple/arm/bin/../lib/gcc/arm-none-eabi/4.4.1/thumb2/crti.o
 .debug_line    0x0000006f      0x154 build//usr/local/libmaple/libmaple/adc.o
 .debug_line    0x000001c3      0x138 build//usr/local/libmaple/libmaple/bkp.o
 .debug_line    0x000002fb       0xa1 build//usr/local/libmaple/libmaple/dac.o
 .debug_line    0x0000039c      0x27a build//usr/local/libmaple/libmaple/dma.o
 .debug_line    0x00000616      0x22f build//usr/local/libmaple/libmaple/exti.o
 .debug_line    0x00000845       0xc4 build//usr/local/libmaple/libmaple/flash.o
 .debug_line    0x00000909       0xa3 build//usr/local/libmaple/libmaple/fsmc.o
 .debug_line    0x000009ac      0x130 build//usr/local/libmaple/libmaple/gpio.o
 .debug_line    0x00000adc       0x93 build//usr/local/libmaple/libmaple/iwdg.o
 .debug_line    0x00000b6f       0xbb build//usr/local/libmaple/libmaple/nvic.o
 .debug_line    0x00000c2a       0xac build//usr/local/libmaple/libmaple/pwr.o
 .debug_line    0x00000cd6      0x564 build//usr/local/libmaple/libmaple/i2c.o
 .debug_line    0x0000123a      0x13c build//usr/local/libmaple/libmaple/rcc.o
 .debug_line    0x00001376      0x220 build//usr/local/libmaple/libmaple/spi.o
 .debug_line    0x00001596      0x39c build//usr/local/libmaple/libmaple/syscalls.o
 .debug_line    0x00001932       0xcb build//usr/local/libmaple/libmaple/systick.o
 .debug_line    0x000019fd      0x2f7 build//usr/local/libmaple/libmaple/timer.o
 .debug_line    0x00001cf4      0x1cb build//usr/local/libmaple/libmaple/usart.o
 .debug_line    0x00001ebf      0x1dc build//usr/local/libmaple/libmaple/util.o
 .debug_line    0x0000209b      0x177 build//usr/local/libmaple/libmaple/usb/descriptors.o
 .debug_line    0x00002212      0x3b3 build//usr/local/libmaple/libmaple/usb/usb.o
 .debug_line    0x000025c5      0x337 build//usr/local/libmaple/libmaple/usb/usb_callbacks.o
 .debug_line    0x000028fc      0x126 build//usr/local/libmaple/libmaple/usb/usb_hardware.o
 .debug_line    0x00002a22      0x324 build//usr/local/libmaple/libmaple/usb/usb_lib/usb_core.o
 .debug_line    0x00002d46       0xd9 build//usr/local/libmaple/libmaple/usb/usb_lib/usb_init.o
 .debug_line    0x00002e1f      0x117 build//usr/local/libmaple/libmaple/usb/usb_lib/usb_int.o
 .debug_line    0x00002f36       0xf3 build//usr/local/libmaple/libmaple/usb/usb_lib/usb_mem.o
 .debug_line    0x00003029      0x4e7 build//usr/local/libmaple/libmaple/usb/usb_lib/usb_regs.o
 .debug_line    0x00003510      0x294 build//usr/local/libmaple/wirish/wirish_math.o
 .debug_line    0x000037a4      0x506 build//usr/local/libmaple/wirish/Print.o
 .debug_line    0x00003caa      0x2ef build//usr/local/libmaple/wirish/boards.o
 .debug_line    0x00003f99      0x150 build//usr/local/libmaple/wirish/boards/maple.o
 .debug_line    0x000040e9      0x13d build//usr/local/libmaple/wirish/boards/maple_mini.o
 .debug_line    0x00004226      0x139 build//usr/local/libmaple/wirish/boards/maple_native.o
 .debug_line    0x0000435f      0x12b build//usr/local/libmaple/wirish/boards/maple_RET6.o
 .debug_line    0x0000448a      0x2a2 build//usr/local/libmaple/wirish/comm/HardwareSerial.o
 .debug_line    0x0000472c      0x669 build//usr/local/libmaple/wirish/comm/HardwareSPI.o
 .debug_line    0x00004d95      0x54b build//usr/local/libmaple/wirish/HardwareTimer.o
 .debug_line    0x000052e0      0x660 build//usr/local/libmaple/wirish/usb_serial.o
 .debug_line    0x00005940       0x5a build//usr/local/libmaple/wirish/cxxabi-compat.o
 .debug_line    0x0000599a      0x465 build//usr/local/libmaple/wirish/wirish_shift.o
 .debug_line    0x00005dff      0x45d build//usr/local/libmaple/wirish/wirish_analog.o
 .debug_line    0x0000625c      0x181 build//usr/local/libmaple/wirish/wirish_time.o
 .debug_line    0x000063dd      0x14e build//usr/local/libmaple/wirish/pwm.o
 .debug_line    0x0000652b      0x185 build//usr/local/libmaple/wirish/ext_interrupts.o
 .debug_line    0x000066b0      0x507 build//usr/local/libmaple/wirish/wirish_digital.o
 .debug_line    0x00006bb7      0x4c0 build//usr/local/libmaple/libraries/Servo/Servo.o
 .debug_line    0x00007077      0x7fc build//usr/local/libmaple/libraries/LiquidCrystal/LiquidCrystal.o
 .debug_line    0x00007873      0x6b6 build//usr/local/libmaple/libraries/Wire/Wire.o
 .debug_line    0x00007f29      0x1eb build//usr/local/libmaple/libraries/FreeRTOS/utility/croutine.o
 .debug_line    0x00008114      0x33c build//usr/local/libmaple/libraries/FreeRTOS/utility/heap_2.o
 .debug_line    0x00008450      0x348 build//usr/local/libmaple/libraries/FreeRTOS/utility/list.o
 .debug_line    0x00008798      0x1eb build//usr/local/libmaple/libraries/FreeRTOS/utility/port.o
 .debug_line    0x00008983      0x540 build//usr/local/libmaple/libraries/FreeRTOS/utility/queue.o
 .debug_line    0x00008ec3      0x131 build//usr/local/libmaple/libraries/FreeRTOS/utility/timers.o
 .debug_line    0x00008ff4      0x780 build//usr/local/libmaple/libraries/FreeRTOS/utility/tasks.o
 .debug_line    0x00009774      0x54a build//usr/local/libmaple/libraries/FreeRTOS/MapleFreeRTOS.o
 .debug_line    0x00009cbe      0x994 build/main.o
 .debug_line    0x0000a652      0x20e /usr/local/libmaple/arm/bin/../lib/gcc/arm-none-eabi/4.4.1/thumb2/libgcc.a(_arm_addsubdf3.o)
 .debug_line    0x0000a860      0x22e /usr/local/libmaple/arm/bin/../lib/gcc/arm-none-eabi/4.4.1/thumb2/libgcc.a(_arm_muldivdf3.o)
 .debug_line    0x0000aa8e      0x114 /usr/local/libmaple/arm/bin/../lib/gcc/arm-none-eabi/4.4.1/thumb2/libgcc.a(_arm_cmpdf2.o)
 .debug_line    0x0000aba2       0x8c /usr/local/libmaple/arm/bin/../lib/gcc/arm-none-eabi/4.4.1/thumb2/libgcc.a(_arm_fixdfsi.o)
 .debug_line    0x0000ac2e      0x12e /usr/local/libmaple/arm/bin/../lib/gcc/arm-none-eabi/4.4.1/thumb2/libgcc.a(_arm_addsubsf3.o)
 .debug_line    0x0000ad5c      0x14f /usr/local/libmaple/arm/bin/../lib/gcc/arm-none-eabi/4.4.1/thumb2/libgcc.a(_arm_muldivsf3.o)
 .debug_line    0x0000aeab       0x77 /usr/local/libmaple/arm/bin/../lib/gcc/arm-none-eabi/4.4.1/thumb2/libgcc.a(_aeabi_uldivmod.o)
 .debug_line    0x0000af22       0x7b /usr/local/libmaple/arm/bin/../lib/gcc/arm-none-eabi/4.4.1/thumb2/libgcc.a(_fixdfdi.o)
 .debug_line    0x0000af9d       0x82 /usr/local/libmaple/arm/bin/../lib/gcc/arm-none-eabi/4.4.1/thumb2/libgcc.a(_fixunsdfdi.o)
 .debug_line    0x0000b01f       0x79 /usr/local/libmaple/arm/bin/../lib/gcc/arm-none-eabi/4.4.1/thumb2/libgcc.a(bpabi.o)
 .debug_line    0x0000b098       0x75 /usr/local/libmaple/arm/bin/../lib/gcc/arm-none-eabi/4.4.1/thumb2/libgcc.a(_dvmd_tls.o)
 .debug_line    0x0000b10d       0x88 /usr/local/libmaple/arm/bin/../lib/gcc/arm-none-eabi/4.4.1/thumb2/libgcc.a(_arm_fixunsdfsi.o)
 .debug_line    0x0000b195       0xe1 /usr/local/libmaple/arm/bin/../lib/gcc/arm-none-eabi/4.4.1/thumb2/libgcc.a(_divdi3.o)
 .debug_line    0x0000b276       0xd5 /usr/local/libmaple/arm/bin/../lib/gcc/arm-none-eabi/4.4.1/thumb2/libgcc.a(_udivdi3.o)
 .debug_line    0x0000b34b       0x98 /usr/local/libmaple/arm/bin/../lib/gcc/arm-none-eabi/4.4.1/thumb2/libgcc.a(_udivsi3.o)
 .debug_line    0x0000b3e3       0xa9 /usr/local/libmaple/arm/bin/../lib/gcc/arm-none-eabi/4.4.1/thumb2/libgcc.a(_divsi3.o)
 .debug_line    0x0000b48c       0x72 /usr/local/libmaple/arm/bin/../lib/gcc/arm-none-eabi/4.4.1/thumb2/crtn.o

.debug_frame    0x00000000     0x3c58
 *(.debug_frame)
 .debug_frame   0x00000000       0xb4 build//usr/local/libmaple/libmaple/adc.o
 .debug_frame   0x000000b4       0xbc build//usr/local/libmaple/libmaple/bkp.o
 .debug_frame   0x00000170      0x238 build//usr/local/libmaple/libmaple/dma.o
 .debug_frame   0x000003a8      0x19c build//usr/local/libmaple/libmaple/exti.o
 .debug_frame   0x00000544       0x30 build//usr/local/libmaple/libmaple/flash.o
 .debug_frame   0x00000574       0xb0 build//usr/local/libmaple/libmaple/gpio.o
 .debug_frame   0x00000624       0x30 build//usr/local/libmaple/libmaple/iwdg.o
 .debug_frame   0x00000654       0x4c build//usr/local/libmaple/libmaple/nvic.o
 .debug_frame   0x000006a0       0x2c build//usr/local/libmaple/libmaple/pwr.o
 .debug_frame   0x000006cc      0x1ac build//usr/local/libmaple/libmaple/i2c.o
 .debug_frame   0x00000878       0x9c build//usr/local/libmaple/libmaple/rcc.o
 .debug_frame   0x00000914      0x13c build//usr/local/libmaple/libmaple/spi.o
 .debug_frame   0x00000a50       0xf8 build//usr/local/libmaple/libmaple/syscalls.o
 .debug_frame   0x00000b48       0x6c build//usr/local/libmaple/libmaple/systick.o
 .debug_frame   0x00000bb4      0x210 build//usr/local/libmaple/libmaple/timer.o
 .debug_frame   0x00000dc4      0x100 build//usr/local/libmaple/libmaple/usart.o
 .debug_frame   0x00000ec4       0xec build//usr/local/libmaple/libmaple/util.o
 .debug_frame   0x00000fb0      0x1f8 build//usr/local/libmaple/libmaple/usb/usb.o
 .debug_frame   0x000011a8      0x158 build//usr/local/libmaple/libmaple/usb/usb_callbacks.o
 .debug_frame   0x00001300       0x4c build//usr/local/libmaple/libmaple/usb/usb_hardware.o
 .debug_frame   0x0000134c      0x1dc build//usr/local/libmaple/libmaple/usb/usb_lib/usb_core.o
 .debug_frame   0x00001528       0x2c build//usr/local/libmaple/libmaple/usb/usb_lib/usb_init.o
 .debug_frame   0x00001554       0x4c build//usr/local/libmaple/libmaple/usb/usb_lib/usb_int.o
 .debug_frame   0x000015a0       0x3c build//usr/local/libmaple/libmaple/usb/usb_lib/usb_mem.o
 .debug_frame   0x000015dc      0x3dc build//usr/local/libmaple/libmaple/usb/usb_lib/usb_regs.o
 .debug_frame   0x000019b8       0x58 build//usr/local/libmaple/wirish/wirish_math.o
 .debug_frame   0x00001a10      0x330 build//usr/local/libmaple/wirish/Print.o
 .debug_frame   0x00001d40       0x8c build//usr/local/libmaple/wirish/boards.o
 .debug_frame   0x00001dcc       0x40 build//usr/local/libmaple/wirish/boards/maple.o
 .debug_frame   0x00001e0c      0x11c build//usr/local/libmaple/wirish/comm/HardwareSerial.o
 .debug_frame   0x00001f28      0x24c build//usr/local/libmaple/wirish/comm/HardwareSPI.o
 .debug_frame   0x00002174      0x1a0 build//usr/local/libmaple/wirish/HardwareTimer.o
 .debug_frame   0x00002314      0x19c build//usr/local/libmaple/wirish/usb_serial.o
 .debug_frame   0x000024b0       0x20 build//usr/local/libmaple/wirish/cxxabi-compat.o
 .debug_frame   0x000024d0       0x38 build//usr/local/libmaple/wirish/wirish_shift.o
 .debug_frame   0x00002508       0x20 build//usr/local/libmaple/wirish/wirish_analog.o
 .debug_frame   0x00002528       0x40 build//usr/local/libmaple/wirish/wirish_time.o
 .debug_frame   0x00002568       0x20 build//usr/local/libmaple/wirish/pwm.o
 .debug_frame   0x00002588       0x40 build//usr/local/libmaple/wirish/ext_interrupts.o
 .debug_frame   0x000025c8       0xa8 build//usr/local/libmaple/wirish/wirish_digital.o
 .debug_frame   0x00002670      0x16c build//usr/local/libmaple/libraries/Servo/Servo.o
 .debug_frame   0x000027dc      0x3e0 build//usr/local/libmaple/libraries/LiquidCrystal/LiquidCrystal.o
 .debug_frame   0x00002bbc      0x2b4 build//usr/local/libmaple/libraries/Wire/Wire.o
 .debug_frame   0x00002e70       0xa4 build//usr/local/libmaple/libraries/FreeRTOS/utility/croutine.o
 .debug_frame   0x00002f14       0x70 build//usr/local/libmaple/libraries/FreeRTOS/utility/heap_2.o
 .debug_frame   0x00002f84       0x6c build//usr/local/libmaple/libraries/FreeRTOS/utility/list.o
 .debug_frame   0x00002ff0       0xd4 build//usr/local/libmaple/libraries/FreeRTOS/utility/port.o
 .debug_frame   0x000030c4      0x210 build//usr/local/libmaple/libraries/FreeRTOS/utility/queue.o
 .debug_frame   0x000032d4      0x3d4 build//usr/local/libmaple/libraries/FreeRTOS/utility/tasks.o
 .debug_frame   0x000036a8       0x20 build//usr/local/libmaple/libraries/FreeRTOS/MapleFreeRTOS.o
 .debug_frame   0x000036c8      0x400 build/main.o
 .debug_frame   0x00003ac8       0x38 /usr/local/libmaple/arm/bin/../lib/gcc/arm-none-eabi/4.4.1/thumb2/libgcc.a(_fixdfdi.o)
 .debug_frame   0x00003b00       0x30 /usr/local/libmaple/arm/bin/../lib/gcc/arm-none-eabi/4.4.1/thumb2/libgcc.a(_fixunsdfdi.o)
 .debug_frame   0x00003b30       0x60 /usr/local/libmaple/arm/bin/../lib/gcc/arm-none-eabi/4.4.1/thumb2/libgcc.a(bpabi.o)
 .debug_frame   0x00003b90       0x44 /usr/local/libmaple/arm/bin/../lib/gcc/arm-none-eabi/4.4.1/thumb2/libgcc.a(_divdi3.o)
 .debug_frame   0x00003bd4       0x44 /usr/local/libmaple/arm/bin/../lib/gcc/arm-none-eabi/4.4.1/thumb2/libgcc.a(_udivdi3.o)
 .debug_frame   0x00003c18       0x20 /usr/local/libmaple/arm/bin/../lib/gcc/arm-none-eabi/4.4.1/thumb2/libgcc.a(_udivsi3.o)
 .debug_frame   0x00003c38       0x20 /usr/local/libmaple/arm/bin/../lib/gcc/arm-none-eabi/4.4.1/thumb2/libgcc.a(_divsi3.o)

.debug_str      0x00000000     0x7e71
 *(.debug_str)
 .debug_str     0x00000000      0x3da build//usr/local/libmaple/libmaple/adc.o
                                0x430 (size before relaxing)
 .debug_str     0x000003da       0xa7 build//usr/local/libmaple/libmaple/bkp.o
                                0x25b (size before relaxing)
 .debug_str     0x00000481       0x23 build//usr/local/libmaple/libmaple/dac.o
                                 0x98 (size before relaxing)
 .debug_str     0x000004a4      0x79e build//usr/local/libmaple/libmaple/dma.o
                                0x9fd (size before relaxing)
 .debug_str     0x00000c42      0x2a4 build//usr/local/libmaple/libmaple/exti.o
                                0x710 (size before relaxing)
 .debug_str     0x00000ee6       0x74 build//usr/local/libmaple/libmaple/flash.o
                                0x11f (size before relaxing)
 .debug_str     0x00000f5a       0x24 build//usr/local/libmaple/libmaple/fsmc.o
                                 0x99 (size before relaxing)
 .debug_str     0x00000f7e      0x383 build//usr/local/libmaple/libmaple/gpio.o
                                0x656 (size before relaxing)
 .debug_str     0x00001301       0xa8 build//usr/local/libmaple/libmaple/iwdg.o
                                0x13c (size before relaxing)
 .debug_str     0x000013a9       0xcc build//usr/local/libmaple/libmaple/nvic.o
                                0x4b5 (size before relaxing)
 .debug_str     0x00001475       0x2c build//usr/local/libmaple/libmaple/pwr.o
                                0x19d (size before relaxing)
 .debug_str     0x000014a1      0x2ee build//usr/local/libmaple/libmaple/i2c.o
                                0xb4c (size before relaxing)
 .debug_str     0x0000178f      0x2db build//usr/local/libmaple/libmaple/rcc.o
                                0x4cc (size before relaxing)
 .debug_str     0x00001a6a      0x37d build//usr/local/libmaple/libmaple/spi.o
                                0x95a (size before relaxing)
 .debug_str     0x00001de7      0x171 build//usr/local/libmaple/libmaple/syscalls.o
                                0x242 (size before relaxing)
 .debug_str     0x00001f58       0xaa build//usr/local/libmaple/libmaple/systick.o
                                0x145 (size before relaxing)
 .debug_str     0x00002002      0x4f1 build//usr/local/libmaple/libmaple/timer.o
                                0xac7 (size before relaxing)
 .debug_str     0x000024f3      0x1a7 build//usr/local/libmaple/libmaple/usart.o
                                0x6ec (size before relaxing)
 .debug_str     0x0000269a       0xc3 build//usr/local/libmaple/libmaple/util.o
                                0x7d2 (size before relaxing)
 .debug_str     0x0000275d      0x45c build//usr/local/libmaple/libmaple/usb/descriptors.o
                                0x5ac (size before relaxing)
 .debug_str     0x00002bb9      0x52b build//usr/local/libmaple/libmaple/usb/usb.o
                                0x8f0 (size before relaxing)
 .debug_str     0x000030e4      0x3f3 build//usr/local/libmaple/libmaple/usb/usb_callbacks.o
                                0xb8c (size before relaxing)
 .debug_str     0x000034d7       0xc1 build//usr/local/libmaple/libmaple/usb/usb_hardware.o
                                0x25b (size before relaxing)
 .debug_str     0x00003598      0x422 build//usr/local/libmaple/libmaple/usb/usb_lib/usb_core.o
                                0x948 (size before relaxing)
 .debug_str     0x000039ba       0x5b build//usr/local/libmaple/libmaple/usb/usb_lib/usb_init.o
                                0x433 (size before relaxing)
 .debug_str     0x00003a15       0x48 build//usr/local/libmaple/libmaple/usb/usb_lib/usb_int.o
                                 0xe8 (size before relaxing)
 .debug_str     0x00003a5d       0x8b build//usr/local/libmaple/libmaple/usb/usb_lib/usb_mem.o
                                 0xe9 (size before relaxing)
 .debug_str     0x00003ae8      0x3f7 build//usr/local/libmaple/libmaple/usb/usb_lib/usb_regs.o
                                0x471 (size before relaxing)
 .debug_str     0x00003edf       0x98 build//usr/local/libmaple/wirish/wirish_math.o
                                0x12e (size before relaxing)
 .debug_str     0x00003f77      0x2b9 build//usr/local/libmaple/wirish/Print.o
                                0x3a0 (size before relaxing)
 .debug_str     0x00004230      0x36f build//usr/local/libmaple/wirish/boards.o
                                0xaef (size before relaxing)
 .debug_str     0x0000459f      0x10b build//usr/local/libmaple/wirish/boards/maple.o
                                0x4b6 (size before relaxing)
 .debug_str     0x000046aa       0x31 build//usr/local/libmaple/wirish/boards/maple_mini.o
                                 0xa8 (size before relaxing)
 .debug_str     0x000046db       0x33 build//usr/local/libmaple/wirish/boards/maple_native.o
                                 0xaa (size before relaxing)
 .debug_str     0x0000470e       0x31 build//usr/local/libmaple/wirish/boards/maple_RET6.o
                                 0xa8 (size before relaxing)
 .debug_str     0x0000473f      0x163 build//usr/local/libmaple/wirish/comm/HardwareSerial.o
                                0xa0b (size before relaxing)
 .debug_str     0x000048a2      0x316 build//usr/local/libmaple/wirish/comm/HardwareSPI.o
                                0xca1 (size before relaxing)
 .debug_str     0x00004bb8      0x8ed build//usr/local/libmaple/wirish/HardwareTimer.o
                                0xcf5 (size before relaxing)
 .debug_str     0x000054a5      0x198 build//usr/local/libmaple/wirish/usb_serial.o
                                0x318 (size before relaxing)
 .debug_str     0x0000563d       0x40 build//usr/local/libmaple/wirish/cxxabi-compat.o
                                 0x4e (size before relaxing)
 .debug_str     0x0000567d       0x56 build//usr/local/libmaple/wirish/wirish_shift.o
                                0x132 (size before relaxing)
 .debug_str     0x000056d3       0x48 build//usr/local/libmaple/wirish/wirish_analog.o
                                0x452 (size before relaxing)
 .debug_str     0x0000571b       0x5e build//usr/local/libmaple/wirish/wirish_time.o
                                0x113 (size before relaxing)
 .debug_str     0x00005779       0x45 build//usr/local/libmaple/wirish/pwm.o
                                0x420 (size before relaxing)
 .debug_str     0x000057be       0x9c build//usr/local/libmaple/wirish/ext_interrupts.o
                                0x5b1 (size before relaxing)
 .debug_str     0x0000585a      0x163 build//usr/local/libmaple/wirish/wirish_digital.o
                                0x6a6 (size before relaxing)
 .debug_str     0x000059bd      0x1b7 build//usr/local/libmaple/libraries/Servo/Servo.o
                                0x738 (size before relaxing)
 .debug_str     0x00005b74      0x4b9 build//usr/local/libmaple/libraries/LiquidCrystal/LiquidCrystal.o
                                0x654 (size before relaxing)
 .debug_str     0x0000602d      0x36e build//usr/local/libmaple/libraries/Wire/Wire.o
                                0x553 (size before relaxing)
 .debug_str     0x0000639b      0x36a build//usr/local/libmaple/libraries/FreeRTOS/utility/croutine.o
                                0x3cb (size before relaxing)
 .debug_str     0x00006705      0x173 build//usr/local/libmaple/libraries/FreeRTOS/utility/heap_2.o
                                0x216 (size before relaxing)
 .debug_str     0x00006878       0xbe build//usr/local/libmaple/libraries/FreeRTOS/utility/list.o
                                0x1fc (size before relaxing)
 .debug_str     0x00006936      0x140 build//usr/local/libmaple/libraries/FreeRTOS/utility/port.o
                                0x193 (size before relaxing)
 .debug_str     0x00006a76      0x3b6 build//usr/local/libmaple/libraries/FreeRTOS/utility/queue.o
                                0x50e (size before relaxing)
 .debug_str     0x00006e2c       0x38 build//usr/local/libmaple/libraries/FreeRTOS/utility/timers.o
                                 0x8b (size before relaxing)
 .debug_str     0x00006e64      0x772 build//usr/local/libmaple/libraries/FreeRTOS/utility/tasks.o
                                0x9a7 (size before relaxing)
 .debug_str     0x000075d6       0x57 build//usr/local/libmaple/libraries/FreeRTOS/MapleFreeRTOS.o
                                0x142 (size before relaxing)
 .debug_str     0x0000762d      0x687 build/main.o
                                0xc33 (size before relaxing)
 .debug_str     0x00007cb4       0xb6 /usr/local/libmaple/arm/bin/../lib/gcc/arm-none-eabi/4.4.1/thumb2/libgcc.a(_fixdfdi.o)
                                0x156 (size before relaxing)
 .debug_str     0x00007d6a       0x1d /usr/local/libmaple/arm/bin/../lib/gcc/arm-none-eabi/4.4.1/thumb2/libgcc.a(_fixunsdfdi.o)
                                0x162 (size before relaxing)
 .debug_str     0x00007d87       0x73 /usr/local/libmaple/arm/bin/../lib/gcc/arm-none-eabi/4.4.1/thumb2/libgcc.a(bpabi.o)
                                0x100 (size before relaxing)
 .debug_str     0x00007dfa       0x6d /usr/local/libmaple/arm/bin/../lib/gcc/arm-none-eabi/4.4.1/thumb2/libgcc.a(_divdi3.o)
                                0x1ce (size before relaxing)
 .debug_str     0x00007e67        0xa /usr/local/libmaple/arm/bin/../lib/gcc/arm-none-eabi/4.4.1/thumb2/libgcc.a(_udivdi3.o)
                                0x1cf (size before relaxing)

.debug_loc      0x00000000     0x9da0
 *(.debug_loc)
 .debug_loc     0x00000000      0x104 build//usr/local/libmaple/libmaple/adc.o
 .debug_loc     0x00000104       0xfd build//usr/local/libmaple/libmaple/bkp.o
 .debug_loc     0x00000201      0x564 build//usr/local/libmaple/libmaple/dma.o
 .debug_loc     0x00000765      0x2c5 build//usr/local/libmaple/libmaple/exti.o
 .debug_loc     0x00000a2a      0x1a1 build//usr/local/libmaple/libmaple/gpio.o
 .debug_loc     0x00000bcb       0x26 build//usr/local/libmaple/libmaple/iwdg.o
 .debug_loc     0x00000bf1       0x89 build//usr/local/libmaple/libmaple/nvic.o
 .debug_loc     0x00000c7a       0x1f build//usr/local/libmaple/libmaple/pwr.o
 .debug_loc     0x00000c99      0x400 build//usr/local/libmaple/libmaple/i2c.o
 .debug_loc     0x00001099      0x121 build//usr/local/libmaple/libmaple/rcc.o
 .debug_loc     0x000011ba      0x31b build//usr/local/libmaple/libmaple/spi.o
 .debug_loc     0x000014d5      0x140 build//usr/local/libmaple/libmaple/syscalls.o
 .debug_loc     0x00001615       0x32 build//usr/local/libmaple/libmaple/systick.o
 .debug_loc     0x00001647      0x464 build//usr/local/libmaple/libmaple/timer.o
 .debug_loc     0x00001aab      0x18f build//usr/local/libmaple/libmaple/usart.o
 .debug_loc     0x00001c3a      0x196 build//usr/local/libmaple/libmaple/util.o
 .debug_loc     0x00001dd0      0x299 build//usr/local/libmaple/libmaple/usb/usb.o
 .debug_loc     0x00002069      0x1c3 build//usr/local/libmaple/libmaple/usb/usb_callbacks.o
 .debug_loc     0x0000222c       0x97 build//usr/local/libmaple/libmaple/usb/usb_hardware.o
 .debug_loc     0x000022c3      0x677 build//usr/local/libmaple/libmaple/usb/usb_lib/usb_core.o
 .debug_loc     0x0000293a       0x1f build//usr/local/libmaple/libmaple/usb/usb_lib/usb_init.o
 .debug_loc     0x00002959       0xfd build//usr/local/libmaple/libmaple/usb/usb_lib/usb_int.o
 .debug_loc     0x00002a56       0x6b build//usr/local/libmaple/libmaple/usb/usb_lib/usb_mem.o
 .debug_loc     0x00002ac1      0x5fc build//usr/local/libmaple/libmaple/usb/usb_lib/usb_regs.o
 .debug_loc     0x000030bd       0xb6 build//usr/local/libmaple/wirish/wirish_math.o
 .debug_loc     0x00003173      0xacf build//usr/local/libmaple/wirish/Print.o
 .debug_loc     0x00003c42      0x124 build//usr/local/libmaple/wirish/boards.o
 .debug_loc     0x00003d66       0x1f build//usr/local/libmaple/wirish/boards/maple.o
 .debug_loc     0x00003d85      0x296 build//usr/local/libmaple/wirish/comm/HardwareSerial.o
 .debug_loc     0x0000401b      0x713 build//usr/local/libmaple/wirish/comm/HardwareSPI.o
 .debug_loc     0x0000472e      0x373 build//usr/local/libmaple/wirish/HardwareTimer.o
 .debug_loc     0x00004aa1      0x3a2 build//usr/local/libmaple/wirish/usb_serial.o
 .debug_loc     0x00004e43       0x97 build//usr/local/libmaple/wirish/wirish_shift.o
 .debug_loc     0x00004eda       0x26 build//usr/local/libmaple/wirish/wirish_analog.o
 .debug_loc     0x00004f00       0x63 build//usr/local/libmaple/wirish/wirish_time.o
 .debug_loc     0x00004f63       0x3c build//usr/local/libmaple/wirish/pwm.o
 .debug_loc     0x00004f9f      0x12e build//usr/local/libmaple/wirish/ext_interrupts.o
 .debug_loc     0x000050cd      0x263 build//usr/local/libmaple/wirish/wirish_digital.o
 .debug_loc     0x00005330      0x3dd build//usr/local/libmaple/libraries/Servo/Servo.o
 .debug_loc     0x0000570d     0x110b build//usr/local/libmaple/libraries/LiquidCrystal/LiquidCrystal.o
 .debug_loc     0x00006818      0x713 build//usr/local/libmaple/libraries/Wire/Wire.o
 .debug_loc     0x00006f2b      0x156 build//usr/local/libmaple/libraries/FreeRTOS/utility/croutine.o
 .debug_loc     0x00007081      0x1d5 build//usr/local/libmaple/libraries/FreeRTOS/utility/heap_2.o
 .debug_loc     0x00007256       0x63 build//usr/local/libmaple/libraries/FreeRTOS/utility/list.o
 .debug_loc     0x000072b9       0x99 build//usr/local/libmaple/libraries/FreeRTOS/utility/port.o
 .debug_loc     0x00007352      0x732 build//usr/local/libmaple/libraries/FreeRTOS/utility/queue.o
 .debug_loc     0x00007a84      0xa32 build//usr/local/libmaple/libraries/FreeRTOS/utility/tasks.o
 .debug_loc     0x000084b6      0x741 build/main.o
 .debug_loc     0x00008bf7       0x67 /usr/local/libmaple/arm/bin/../lib/gcc/arm-none-eabi/4.4.1/thumb2/libgcc.a(_fixdfdi.o)
 .debug_loc     0x00008c5e       0x57 /usr/local/libmaple/arm/bin/../lib/gcc/arm-none-eabi/4.4.1/thumb2/libgcc.a(_fixunsdfdi.o)
 .debug_loc     0x00008cb5      0x11e /usr/local/libmaple/arm/bin/../lib/gcc/arm-none-eabi/4.4.1/thumb2/libgcc.a(bpabi.o)
 .debug_loc     0x00008dd3      0x7bb /usr/local/libmaple/arm/bin/../lib/gcc/arm-none-eabi/4.4.1/thumb2/libgcc.a(_divdi3.o)
 .debug_loc     0x0000958e      0x812 /usr/local/libmaple/arm/bin/../lib/gcc/arm-none-eabi/4.4.1/thumb2/libgcc.a(_udivdi3.o)

.debug_macinfo  0x00000000   0x1919de
 *(.debug_macinfo)
 .debug_macinfo
                0x00000000     0x46b0 build//usr/local/libmaple/libmaple/adc.o
 .debug_macinfo
                0x000046b0     0x3d9c build//usr/local/libmaple/libmaple/bkp.o
 .debug_macinfo
                0x0000844c     0x5152 build//usr/local/libmaple/libmaple/dac.o
 .debug_macinfo
                0x0000d59e     0x4bbb build//usr/local/libmaple/libmaple/dma.o
 .debug_macinfo
                0x00012159     0x4e8a build//usr/local/libmaple/libmaple/exti.o
 .debug_macinfo
                0x00016fe3     0x1712 build//usr/local/libmaple/libmaple/flash.o
 .debug_macinfo
                0x000186f5     0x4d9f build//usr/local/libmaple/libmaple/fsmc.o
 .debug_macinfo
                0x0001d494     0x4dad build//usr/local/libmaple/libmaple/gpio.o
 .debug_macinfo
                0x00022241     0x1086 build//usr/local/libmaple/libmaple/iwdg.o
 .debug_macinfo
                0x000232c7      0xffc build//usr/local/libmaple/libmaple/nvic.o
 .debug_macinfo
                0x000242c3     0x3a4d build//usr/local/libmaple/libmaple/pwr.o
 .debug_macinfo
                0x00027d10     0x71da build//usr/local/libmaple/libmaple/i2c.o
 .debug_macinfo
                0x0002eeea     0x40c8 build//usr/local/libmaple/libmaple/rcc.o
 .debug_macinfo
                0x00032fb2     0x5ddb build//usr/local/libmaple/libmaple/spi.o
 .debug_macinfo
                0x00038d8d     0x3730 build//usr/local/libmaple/libmaple/syscalls.o
 .debug_macinfo
                0x0003c4bd     0x10e4 build//usr/local/libmaple/libmaple/systick.o
 .debug_macinfo
                0x0003d5a1     0x60b1 build//usr/local/libmaple/libmaple/timer.o
 .debug_macinfo
                0x00043652     0x4824 build//usr/local/libmaple/libmaple/usart.o
 .debug_macinfo
                0x00047e76     0x9136 build//usr/local/libmaple/libmaple/util.o
 .debug_macinfo
                0x00050fac     0x71cd build//usr/local/libmaple/libmaple/usb/descriptors.o
 .debug_macinfo
                0x00058179     0x730a build//usr/local/libmaple/libmaple/usb/usb.o
 .debug_macinfo
                0x0005f483     0x75d5 build//usr/local/libmaple/libmaple/usb/usb_callbacks.o
 .debug_macinfo
                0x00066a58     0x3a3a build//usr/local/libmaple/libmaple/usb/usb_hardware.o
 .debug_macinfo
                0x0006a492     0x2d0a build//usr/local/libmaple/libmaple/usb/usb_lib/usb_core.o
 .debug_macinfo
                0x0006d19c     0x2b58 build//usr/local/libmaple/libmaple/usb/usb_lib/usb_init.o
 .debug_macinfo
                0x0006fcf4     0x2b58 build//usr/local/libmaple/libmaple/usb/usb_lib/usb_int.o
 .debug_macinfo
                0x0007284c     0x2b58 build//usr/local/libmaple/libmaple/usb/usb_lib/usb_mem.o
 .debug_macinfo
                0x000753a4     0x2b58 build//usr/local/libmaple/libmaple/usb/usb_lib/usb_regs.o
 .debug_macinfo
                0x00077efc     0x382e build//usr/local/libmaple/wirish/wirish_math.o
 .debug_macinfo
                0x0007b72a     0x3ab5 build//usr/local/libmaple/wirish/Print.o
 .debug_macinfo
                0x0007f1df     0xac8a build//usr/local/libmaple/wirish/boards.o
 .debug_macinfo
                0x00089e69     0x851e build//usr/local/libmaple/wirish/boards/maple.o
 .debug_macinfo
                0x00092387     0x8522 build//usr/local/libmaple/wirish/boards/maple_mini.o
 .debug_macinfo
                0x0009a8a9     0x8601 build//usr/local/libmaple/wirish/boards/maple_native.o
 .debug_macinfo
                0x000a2eaa     0x8585 build//usr/local/libmaple/wirish/boards/maple_RET6.o
 .debug_macinfo
                0x000ab42f     0x95b9 build//usr/local/libmaple/wirish/comm/HardwareSerial.o
 .debug_macinfo
                0x000b49e8     0xf2ea build//usr/local/libmaple/wirish/comm/HardwareSPI.o
 .debug_macinfo
                0x000c3cd2     0xaf3a build//usr/local/libmaple/wirish/HardwareTimer.o
 .debug_macinfo
                0x000cec0c    0x1130d build//usr/local/libmaple/wirish/usb_serial.o
 .debug_macinfo
                0x000dff19      0xdc0 build//usr/local/libmaple/wirish/cxxabi-compat.o
 .debug_macinfo
                0x000e0cd9     0xf2e2 build//usr/local/libmaple/wirish/wirish_shift.o
 .debug_macinfo
                0x000effbb     0xf2e2 build//usr/local/libmaple/wirish/wirish_analog.o
 .debug_macinfo
                0x000ff29d     0x87a2 build//usr/local/libmaple/wirish/wirish_time.o
 .debug_macinfo
                0x00107a3f     0x85b8 build//usr/local/libmaple/wirish/pwm.o
 .debug_macinfo
                0x0010fff7     0x85f3 build//usr/local/libmaple/wirish/ext_interrupts.o
 .debug_macinfo
                0x001185ea     0xf2fc build//usr/local/libmaple/wirish/wirish_digital.o
 .debug_macinfo
                0x001278e6     0xb400 build//usr/local/libmaple/libraries/Servo/Servo.o
 .debug_macinfo
                0x00132ce6    0x105b2 build//usr/local/libmaple/libraries/LiquidCrystal/LiquidCrystal.o
 .debug_macinfo
                0x00143298     0xf3b2 build//usr/local/libmaple/libraries/Wire/Wire.o
 .debug_macinfo
                0x0015264a     0x32f7 build//usr/local/libmaple/libraries/FreeRTOS/utility/croutine.o
 .debug_macinfo
                0x00155941     0x4b65 build//usr/local/libmaple/libraries/FreeRTOS/utility/heap_2.o
 .debug_macinfo
                0x0015a4a6     0x44b6 build//usr/local/libmaple/libraries/FreeRTOS/utility/list.o
 .debug_macinfo
                0x0015e95c     0x2e2a build//usr/local/libmaple/libraries/FreeRTOS/utility/port.o
 .debug_macinfo
                0x00161786     0x51b2 build//usr/local/libmaple/libraries/FreeRTOS/utility/queue.o
 .debug_macinfo
                0x00166938     0x38e8 build//usr/local/libmaple/libraries/FreeRTOS/utility/timers.o
 .debug_macinfo
                0x0016a220     0x65c2 build//usr/local/libmaple/libraries/FreeRTOS/utility/tasks.o
 .debug_macinfo
                0x001707e2    0x11eea build//usr/local/libmaple/libraries/FreeRTOS/MapleFreeRTOS.o
 .debug_macinfo
                0x001826cc     0xf312 build/main.o

.debug_weaknames
 *(.debug_weaknames)

.debug_funcnames
 *(.debug_funcnames)

.debug_typenames
 *(.debug_typenames)

.debug_varnames
 *(.debug_varnames)

.note.gnu.arm.ident
 *(.note.gnu.arm.ident)

.ARM.attributes
                0x00000000       0x27
 *(.ARM.attributes)
 .ARM.attributes
                0x00000000       0x19 /usr/local/libmaple/arm/bin/../lib/gcc/arm-none-eabi/4.4.1/thumb2/crti.o
 .ARM.attributes
                0x00000019       0x29 /usr/local/libmaple/arm/bin/../lib/gcc/arm-none-eabi/4.4.1/thumb2/crtbegin.o
 .ARM.attributes
                0x00000042       0x31 build//usr/local/libmaple/libmaple/adc.o
 .ARM.attributes
                0x00000073       0x31 build//usr/local/libmaple/libmaple/bkp.o
 .ARM.attributes
                0x000000a4       0x31 build//usr/local/libmaple/libmaple/dac.o
 .ARM.attributes
                0x000000d5       0x31 build//usr/local/libmaple/libmaple/dma.o
 .ARM.attributes
                0x00000106       0x31 build//usr/local/libmaple/libmaple/exti.o
 .ARM.attributes
                0x00000137       0x31 build//usr/local/libmaple/libmaple/flash.o
 .ARM.attributes
                0x00000168       0x31 build//usr/local/libmaple/libmaple/fsmc.o
 .ARM.attributes
                0x00000199       0x31 build//usr/local/libmaple/libmaple/gpio.o
 .ARM.attributes
                0x000001ca       0x31 build//usr/local/libmaple/libmaple/iwdg.o
 .ARM.attributes
                0x000001fb       0x31 build//usr/local/libmaple/libmaple/nvic.o
 .ARM.attributes
                0x0000022c       0x31 build//usr/local/libmaple/libmaple/pwr.o
 .ARM.attributes
                0x0000025d       0x31 build//usr/local/libmaple/libmaple/i2c.o
 .ARM.attributes
                0x0000028e       0x31 build//usr/local/libmaple/libmaple/rcc.o
 .ARM.attributes
                0x000002bf       0x31 build//usr/local/libmaple/libmaple/spi.o
 .ARM.attributes
                0x000002f0       0x31 build//usr/local/libmaple/libmaple/syscalls.o
 .ARM.attributes
                0x00000321       0x31 build//usr/local/libmaple/libmaple/systick.o
 .ARM.attributes
                0x00000352       0x31 build//usr/local/libmaple/libmaple/timer.o
 .ARM.attributes
                0x00000383       0x31 build//usr/local/libmaple/libmaple/usart.o
 .ARM.attributes
                0x000003b4       0x31 build//usr/local/libmaple/libmaple/util.o
 .ARM.attributes
                0x000003e5       0x31 build//usr/local/libmaple/libmaple/usb/descriptors.o
 .ARM.attributes
                0x00000416       0x31 build//usr/local/libmaple/libmaple/usb/usb.o
 .ARM.attributes
                0x00000447       0x31 build//usr/local/libmaple/libmaple/usb/usb_callbacks.o
 .ARM.attributes
                0x00000478       0x31 build//usr/local/libmaple/libmaple/usb/usb_hardware.o
 .ARM.attributes
                0x000004a9       0x31 build//usr/local/libmaple/libmaple/usb/usb_lib/usb_core.o
 .ARM.attributes
                0x000004da       0x31 build//usr/local/libmaple/libmaple/usb/usb_lib/usb_init.o
 .ARM.attributes
                0x0000050b       0x31 build//usr/local/libmaple/libmaple/usb/usb_lib/usb_int.o
 .ARM.attributes
                0x0000053c       0x31 build//usr/local/libmaple/libmaple/usb/usb_lib/usb_mem.o
 .ARM.attributes
                0x0000056d       0x31 build//usr/local/libmaple/libmaple/usb/usb_lib/usb_regs.o
 .ARM.attributes
                0x0000059e       0x1b build//usr/local/libmaple/libmaple/exc.o
 .ARM.attributes
                0x000005b9       0x31 build//usr/local/libmaple/wirish/wirish_math.o
 .ARM.attributes
                0x000005ea       0x31 build//usr/local/libmaple/wirish/Print.o
 .ARM.attributes
                0x0000061b       0x31 build//usr/local/libmaple/wirish/boards.o
 .ARM.attributes
                0x0000064c       0x31 build//usr/local/libmaple/wirish/boards/maple.o
 .ARM.attributes
                0x0000067d       0x31 build//usr/local/libmaple/wirish/boards/maple_mini.o
 .ARM.attributes
                0x000006ae       0x31 build//usr/local/libmaple/wirish/boards/maple_native.o
 .ARM.attributes
                0x000006df       0x31 build//usr/local/libmaple/wirish/boards/maple_RET6.o
 .ARM.attributes
                0x00000710       0x31 build//usr/local/libmaple/wirish/comm/HardwareSerial.o
 .ARM.attributes
                0x00000741       0x31 build//usr/local/libmaple/wirish/comm/HardwareSPI.o
 .ARM.attributes
                0x00000772       0x31 build//usr/local/libmaple/wirish/HardwareTimer.o
 .ARM.attributes
                0x000007a3       0x31 build//usr/local/libmaple/wirish/usb_serial.o
 .ARM.attributes
                0x000007d4       0x31 build//usr/local/libmaple/wirish/cxxabi-compat.o
 .ARM.attributes
                0x00000805       0x31 build//usr/local/libmaple/wirish/wirish_shift.o
 .ARM.attributes
                0x00000836       0x31 build//usr/local/libmaple/wirish/wirish_analog.o
 .ARM.attributes
                0x00000867       0x31 build//usr/local/libmaple/wirish/wirish_time.o
 .ARM.attributes
                0x00000898       0x31 build//usr/local/libmaple/wirish/pwm.o
 .ARM.attributes
                0x000008c9       0x31 build//usr/local/libmaple/wirish/ext_interrupts.o
 .ARM.attributes
                0x000008fa       0x31 build//usr/local/libmaple/wirish/wirish_digital.o
 .ARM.attributes
                0x0000092b       0x31 build//usr/local/libmaple/libraries/Servo/Servo.o
 .ARM.attributes
                0x0000095c       0x31 build//usr/local/libmaple/libraries/LiquidCrystal/LiquidCrystal.o
 .ARM.attributes
                0x0000098d       0x31 build//usr/local/libmaple/libraries/Wire/Wire.o
 .ARM.attributes
                0x000009be       0x31 build//usr/local/libmaple/libraries/FreeRTOS/utility/croutine.o
 .ARM.attributes
                0x000009ef       0x31 build//usr/local/libmaple/libraries/FreeRTOS/utility/heap_2.o
 .ARM.attributes
                0x00000a20       0x31 build//usr/local/libmaple/libraries/FreeRTOS/utility/list.o
 .ARM.attributes
                0x00000a51       0x31 build//usr/local/libmaple/libraries/FreeRTOS/utility/port.o
 .ARM.attributes
                0x00000a82       0x31 build//usr/local/libmaple/libraries/FreeRTOS/utility/queue.o
 .ARM.attributes
                0x00000ab3       0x31 build//usr/local/libmaple/libraries/FreeRTOS/utility/timers.o
 .ARM.attributes
                0x00000ae4       0x31 build//usr/local/libmaple/libraries/FreeRTOS/utility/tasks.o
 .ARM.attributes
                0x00000b15       0x31 build//usr/local/libmaple/libraries/FreeRTOS/MapleFreeRTOS.o
 .ARM.attributes
                0x00000b46       0x31 build/main.o
 .ARM.attributes
                0x00000b77       0x1b /usr/local/libmaple/arm/bin/../lib/gcc/arm-none-eabi/4.4.1/thumb2/libgcc.a(_arm_addsubdf3.o)
 .ARM.attributes
                0x00000b92       0x1b /usr/local/libmaple/arm/bin/../lib/gcc/arm-none-eabi/4.4.1/thumb2/libgcc.a(_arm_muldivdf3.o)
 .ARM.attributes
                0x00000bad       0x1b /usr/local/libmaple/arm/bin/../lib/gcc/arm-none-eabi/4.4.1/thumb2/libgcc.a(_arm_cmpdf2.o)
 .ARM.attributes
                0x00000bc8       0x1b /usr/local/libmaple/arm/bin/../lib/gcc/arm-none-eabi/4.4.1/thumb2/libgcc.a(_arm_fixdfsi.o)
 .ARM.attributes
                0x00000be3       0x1b /usr/local/libmaple/arm/bin/../lib/gcc/arm-none-eabi/4.4.1/thumb2/libgcc.a(_arm_addsubsf3.o)
 .ARM.attributes
                0x00000bfe       0x1b /usr/local/libmaple/arm/bin/../lib/gcc/arm-none-eabi/4.4.1/thumb2/libgcc.a(_arm_muldivsf3.o)
 .ARM.attributes
                0x00000c19       0x1b /usr/local/libmaple/arm/bin/../lib/gcc/arm-none-eabi/4.4.1/thumb2/libgcc.a(_aeabi_uldivmod.o)
 .ARM.attributes
                0x00000c34       0x29 /usr/local/libmaple/arm/bin/../lib/gcc/arm-none-eabi/4.4.1/thumb2/libgcc.a(_fixdfdi.o)
 .ARM.attributes
                0x00000c5d       0x29 /usr/local/libmaple/arm/bin/../lib/gcc/arm-none-eabi/4.4.1/thumb2/libgcc.a(_fixunsdfdi.o)
 .ARM.attributes
                0x00000c86       0x29 /usr/local/libmaple/arm/bin/../lib/gcc/arm-none-eabi/4.4.1/thumb2/libgcc.a(bpabi.o)
 .ARM.attributes
                0x00000caf       0x1b /usr/local/libmaple/arm/bin/../lib/gcc/arm-none-eabi/4.4.1/thumb2/libgcc.a(_dvmd_tls.o)
 .ARM.attributes
                0x00000cca       0x1b /usr/local/libmaple/arm/bin/../lib/gcc/arm-none-eabi/4.4.1/thumb2/libgcc.a(_arm_fixunsdfsi.o)
 .ARM.attributes
                0x00000ce5       0x29 /usr/local/libmaple/arm/bin/../lib/gcc/arm-none-eabi/4.4.1/thumb2/libgcc.a(_divdi3.o)
 .ARM.attributes
                0x00000d0e       0x29 /usr/local/libmaple/arm/bin/../lib/gcc/arm-none-eabi/4.4.1/thumb2/libgcc.a(_udivdi3.o)
 .ARM.attributes
                0x00000d37       0x1b /usr/local/libmaple/arm/bin/../lib/gcc/arm-none-eabi/4.4.1/thumb2/libgcc.a(_udivsi3.o)
 .ARM.attributes
                0x00000d52       0x29 /usr/local/libmaple/arm/bin/../lib/gcc/arm-none-eabi/4.4.1/../../../../arm-none-eabi/lib/thumb2/libc.a(lib_a-memcmp.o)
 .ARM.attributes
                0x00000d7b       0x29 /usr/local/libmaple/arm/bin/../lib/gcc/arm-none-eabi/4.4.1/../../../../arm-none-eabi/lib/thumb2/libc.a(lib_a-memcpy.o)
 .ARM.attributes
                0x00000da4       0x29 /usr/local/libmaple/arm/bin/../lib/gcc/arm-none-eabi/4.4.1/../../../../arm-none-eabi/lib/thumb2/libc.a(lib_a-memset.o)
 .ARM.attributes
                0x00000dcd       0x29 /usr/local/libmaple/arm/bin/../lib/gcc/arm-none-eabi/4.4.1/../../../../arm-none-eabi/lib/thumb2/libc.a(lib_a-rand.o)
 .ARM.attributes
                0x00000df6       0x29 /usr/local/libmaple/arm/bin/../lib/gcc/arm-none-eabi/4.4.1/../../../../arm-none-eabi/lib/thumb2/libc.a(lib_a-sprintf.o)
 .ARM.attributes
                0x00000e1f       0x29 /usr/local/libmaple/arm/bin/../lib/gcc/arm-none-eabi/4.4.1/../../../../arm-none-eabi/lib/thumb2/libc.a(lib_a-strcat.o)
 .ARM.attributes
                0x00000e48       0x29 /usr/local/libmaple/arm/bin/../lib/gcc/arm-none-eabi/4.4.1/../../../../arm-none-eabi/lib/thumb2/libc.a(lib_a-strlen.o)
 .ARM.attributes
                0x00000e71       0x29 /usr/local/libmaple/arm/bin/../lib/gcc/arm-none-eabi/4.4.1/../../../../arm-none-eabi/lib/thumb2/libc.a(lib_a-strncpy.o)
 .ARM.attributes
                0x00000e9a       0x29 /usr/local/libmaple/arm/bin/../lib/gcc/arm-none-eabi/4.4.1/../../../../arm-none-eabi/lib/thumb2/libc.a(lib_a-svfprintf.o)
 .ARM.attributes
                0x00000ec3       0x29 /usr/local/libmaple/arm/bin/../lib/gcc/arm-none-eabi/4.4.1/../../../../arm-none-eabi/lib/thumb2/libc.a(lib_a-dtoa.o)
 .ARM.attributes
                0x00000eec       0x29 /usr/local/libmaple/arm/bin/../lib/gcc/arm-none-eabi/4.4.1/../../../../arm-none-eabi/lib/thumb2/libc.a(lib_a-freer.o)
 .ARM.attributes
                0x00000f15       0x29 /usr/local/libmaple/arm/bin/../lib/gcc/arm-none-eabi/4.4.1/../../../../arm-none-eabi/lib/thumb2/libc.a(lib_a-impure.o)
 .ARM.attributes
                0x00000f3e       0x29 /usr/local/libmaple/arm/bin/../lib/gcc/arm-none-eabi/4.4.1/../../../../arm-none-eabi/lib/thumb2/libc.a(lib_a-locale.o)
 .ARM.attributes
                0x00000f67       0x29 /usr/local/libmaple/arm/bin/../lib/gcc/arm-none-eabi/4.4.1/../../../../arm-none-eabi/lib/thumb2/libc.a(lib_a-malloc.o)
 .ARM.attributes
                0x00000f90       0x29 /usr/local/libmaple/arm/bin/../lib/gcc/arm-none-eabi/4.4.1/../../../../arm-none-eabi/lib/thumb2/libc.a(lib_a-mallocr.o)
 .ARM.attributes
                0x00000fb9       0x29 /usr/local/libmaple/arm/bin/../lib/gcc/arm-none-eabi/4.4.1/../../../../arm-none-eabi/lib/thumb2/libc.a(lib_a-memchr.o)
 .ARM.attributes
                0x00000fe2       0x29 /usr/local/libmaple/arm/bin/../lib/gcc/arm-none-eabi/4.4.1/../../../../arm-none-eabi/lib/thumb2/libc.a(lib_a-memmove.o)
 .ARM.attributes
                0x0000100b       0x29 /usr/local/libmaple/arm/bin/../lib/gcc/arm-none-eabi/4.4.1/../../../../arm-none-eabi/lib/thumb2/libc.a(lib_a-mlock.o)
 .ARM.attributes
                0x00001034       0x29 /usr/local/libmaple/arm/bin/../lib/gcc/arm-none-eabi/4.4.1/../../../../arm-none-eabi/lib/thumb2/libc.a(lib_a-mprec.o)
 .ARM.attributes
                0x0000105d       0x29 /usr/local/libmaple/arm/bin/../lib/gcc/arm-none-eabi/4.4.1/../../../../arm-none-eabi/lib/thumb2/libc.a(lib_a-reallocr.o)
 .ARM.attributes
                0x00001086       0x29 /usr/local/libmaple/arm/bin/../lib/gcc/arm-none-eabi/4.4.1/../../../../arm-none-eabi/lib/thumb2/libc.a(lib_a-s_isinfd.o)
 .ARM.attributes
                0x000010af       0x29 /usr/local/libmaple/arm/bin/../lib/gcc/arm-none-eabi/4.4.1/../../../../arm-none-eabi/lib/thumb2/libc.a(lib_a-s_isnand.o)
 .ARM.attributes
                0x000010d8       0x29 /usr/local/libmaple/arm/bin/../lib/gcc/arm-none-eabi/4.4.1/../../../../arm-none-eabi/lib/thumb2/libc.a(lib_a-sbrkr.o)
 .ARM.attributes
                0x00001101       0x29 /usr/local/libmaple/arm/bin/../lib/gcc/arm-none-eabi/4.4.1/../../../../arm-none-eabi/lib/thumb2/libc.a(lib_a-strcmp.o)
 .ARM.attributes
                0x0000112a       0x29 /usr/local/libmaple/arm/bin/../lib/gcc/arm-none-eabi/4.4.1/../../../../arm-none-eabi/lib/thumb2/libc.a(lib_a-callocr.o)
 .ARM.attributes
                0x00001153       0x29 /usr/local/libmaple/arm/bin/../lib/gcc/arm-none-eabi/4.4.1/../../../../arm-none-eabi/lib/thumb2/libc.a(lib_a-reent.o)
 .ARM.attributes
                0x0000117c       0x1b /usr/local/libmaple/arm/bin/../lib/gcc/arm-none-eabi/4.4.1/thumb2/libgcc.a(_divsi3.o)
 .ARM.attributes
                0x00001197       0x29 /usr/local/libmaple/arm/bin/../lib/gcc/arm-none-eabi/4.4.1/thumb2/crtend.o
 .ARM.attributes
                0x000011c0       0x19 /usr/local/libmaple/arm/bin/../lib/gcc/arm-none-eabi/4.4.1/thumb2/crtn.o
 .ARM.attributes
                0x000011d9       0x16 /usr/local/libmaple/support/ld/libcs3_stm32_med_density.a(stm32_vector_table.o)
 .ARM.attributes
                0x000011ef       0x16 /usr/local/libmaple/support/ld/libcs3_stm32_med_density.a(stm32_isrs.o)
 .ARM.attributes
                0x00001205       0x16 /usr/local/libmaple/support/ld/libcs3_stm32_med_density.a(start.o)
 .ARM.attributes
                0x0000121b       0x31 /usr/local/libmaple/support/ld/libcs3_stm32_med_density.a(start_c.o)
 .ARM.attributes
                0x0000124c       0x29 /usr/local/libmaple/arm/bin/../lib/gcc/arm-none-eabi/4.4.1/../../../../arm-none-eabi/lib/thumb2/libc.a(lib_a-init.o)

/DISCARD/
 *(.note.GNU-stack)
OUTPUT(build/maple.elf elf32-littlearm)

.debug_ranges   0x00000000     0x2178
 .debug_ranges  0x00000000       0x20 /usr/local/libmaple/arm/bin/../lib/gcc/arm-none-eabi/4.4.1/thumb2/crti.o
 .debug_ranges  0x00000020       0x48 build//usr/local/libmaple/libmaple/adc.o
 .debug_ranges  0x00000068       0x48 build//usr/local/libmaple/libmaple/bkp.o
 .debug_ranges  0x000000b0       0xc8 build//usr/local/libmaple/libmaple/dma.o
 .debug_ranges  0x00000178       0xb8 build//usr/local/libmaple/libmaple/exti.o
 .debug_ranges  0x00000230       0x20 build//usr/local/libmaple/libmaple/flash.o
 .debug_ranges  0x00000250       0x40 build//usr/local/libmaple/libmaple/gpio.o
 .debug_ranges  0x00000290       0x20 build//usr/local/libmaple/libmaple/iwdg.o
 .debug_ranges  0x000002b0       0x28 build//usr/local/libmaple/libmaple/nvic.o
 .debug_ranges  0x000002d8       0x18 build//usr/local/libmaple/libmaple/pwr.o
 .debug_ranges  0x000002f0      0x140 build//usr/local/libmaple/libmaple/i2c.o
 .debug_ranges  0x00000430       0x40 build//usr/local/libmaple/libmaple/rcc.o
 .debug_ranges  0x00000470       0xd8 build//usr/local/libmaple/libmaple/spi.o
 .debug_ranges  0x00000548       0x78 build//usr/local/libmaple/libmaple/syscalls.o
 .debug_ranges  0x000005c0       0x38 build//usr/local/libmaple/libmaple/systick.o
 .debug_ranges  0x000005f8      0x1b0 build//usr/local/libmaple/libmaple/timer.o
 .debug_ranges  0x000007a8       0xd8 build//usr/local/libmaple/libmaple/usart.o
 .debug_ranges  0x00000880       0x68 build//usr/local/libmaple/libmaple/util.o
 .debug_ranges  0x000008e8       0xc0 build//usr/local/libmaple/libmaple/usb/usb.o
 .debug_ranges  0x000009a8       0x98 build//usr/local/libmaple/libmaple/usb/usb_callbacks.o
 .debug_ranges  0x00000a40       0x28 build//usr/local/libmaple/libmaple/usb/usb_hardware.o
 .debug_ranges  0x00000a68       0xb0 build//usr/local/libmaple/libmaple/usb/usb_lib/usb_core.o
 .debug_ranges  0x00000b18       0x18 build//usr/local/libmaple/libmaple/usb/usb_lib/usb_init.o
 .debug_ranges  0x00000b30       0x20 build//usr/local/libmaple/libmaple/usb/usb_lib/usb_int.o
 .debug_ranges  0x00000b50       0x20 build//usr/local/libmaple/libmaple/usb/usb_lib/usb_mem.o
 .debug_ranges  0x00000b70      0x218 build//usr/local/libmaple/libmaple/usb/usb_lib/usb_regs.o
 .debug_ranges  0x00000d88       0x40 build//usr/local/libmaple/wirish/wirish_math.o
 .debug_ranges  0x00000dc8      0x128 build//usr/local/libmaple/wirish/Print.o
 .debug_ranges  0x00000ef0      0x110 build//usr/local/libmaple/wirish/boards.o
 .debug_ranges  0x00001000       0x50 build//usr/local/libmaple/wirish/boards/maple.o
 .debug_ranges  0x00001050       0x90 build//usr/local/libmaple/wirish/comm/HardwareSerial.o
 .debug_ranges  0x000010e0      0x170 build//usr/local/libmaple/wirish/comm/HardwareSPI.o
 .debug_ranges  0x00001250      0x1b0 build//usr/local/libmaple/wirish/HardwareTimer.o
 .debug_ranges  0x00001400       0xc0 build//usr/local/libmaple/wirish/usb_serial.o
 .debug_ranges  0x000014c0       0x18 build//usr/local/libmaple/wirish/cxxabi-compat.o
 .debug_ranges  0x000014d8       0x18 build//usr/local/libmaple/wirish/wirish_shift.o
 .debug_ranges  0x000014f0       0x38 build//usr/local/libmaple/wirish/wirish_analog.o
 .debug_ranges  0x00001528       0x20 build//usr/local/libmaple/wirish/wirish_time.o
 .debug_ranges  0x00001548       0x18 build//usr/local/libmaple/wirish/pwm.o
 .debug_ranges  0x00001560       0x40 build//usr/local/libmaple/wirish/ext_interrupts.o
 .debug_ranges  0x000015a0       0x98 build//usr/local/libmaple/wirish/wirish_digital.o
 .debug_ranges  0x00001638       0xc0 build//usr/local/libmaple/libraries/Servo/Servo.o
 .debug_ranges  0x000016f8      0x158 build//usr/local/libmaple/libraries/LiquidCrystal/LiquidCrystal.o
 .debug_ranges  0x00001850      0x110 build//usr/local/libmaple/libraries/Wire/Wire.o
 .debug_ranges  0x00001960       0x78 build//usr/local/libmaple/libraries/FreeRTOS/utility/croutine.o
 .debug_ranges  0x000019d8       0x48 build//usr/local/libmaple/libraries/FreeRTOS/utility/heap_2.o
 .debug_ranges  0x00001a20       0x38 build//usr/local/libmaple/libraries/FreeRTOS/utility/list.o
 .debug_ranges  0x00001a58       0x60 build//usr/local/libmaple/libraries/FreeRTOS/utility/port.o
 .debug_ranges  0x00001ab8       0x98 build//usr/local/libmaple/libraries/FreeRTOS/utility/queue.o
 .debug_ranges  0x00001b50      0x1e0 build//usr/local/libmaple/libraries/FreeRTOS/utility/tasks.o
 .debug_ranges  0x00001d30       0x18 build//usr/local/libmaple/libraries/FreeRTOS/MapleFreeRTOS.o
 .debug_ranges  0x00001d48      0x278 build/main.o
 .debug_ranges  0x00001fc0       0xd0 /usr/local/libmaple/arm/bin/../lib/gcc/arm-none-eabi/4.4.1/thumb2/libgcc.a(_divdi3.o)
 .debug_ranges  0x00002090       0xc8 /usr/local/libmaple/arm/bin/../lib/gcc/arm-none-eabi/4.4.1/thumb2/libgcc.a(_udivdi3.o)
 .debug_ranges  0x00002158       0x20 /usr/local/libmaple/arm/bin/../lib/gcc/arm-none-eabi/4.4.1/thumb2/crtn.o
